Certificate:
    Data:
        Version: 3 (0x2)
        Serial Number: 6 (0x6)
    Signature Algorithm: sha256WithRSAEncryption
        Issuer: C=US, ST=US, L=beijing, O=VeriSign, Inc., OU=VeriSign Trust Network, CN=VeriSign Class 3 Public Primary Certification Authority - G5
        Validity
            Not Before: Oct  8 07:01:52 2015 GMT
            Not After : Oct  7 07:01:52 2016 GMT
        Subject: C=CN, ST=beijing, O=CN, OU=CN, CN=CN
        Subject Public Key Info:
            Public Key Algorithm: rsaEncryption
                Public-Key: (1024 bit)
                Modulus:
                    00:c2:83:89:cc:f9:24:6f:b1:ad:a8:28:88:e2:54:
                    bb:55:dc:a7:c1:fb:8e:86:42:6e:73:1a:d4:77:d9:
                    4e:32:ef:00:4c:f3:95:11:22:e8:05:02:cd:d1:01:
                    a8:b8:97:a4:6c:a8:5a:0d:26:88:8a:10:be:58:d8:
                    5b:bf:98:c1:82:02:de:09:7d:89:50:c1:e1:b1:8a:
                    5f:9d:06:1c:cb:8a:58:f1:52:73:8b:55:6b:5c:4d:
                    cf:00:fb:8f:97:cf:20:47:7a:43:0c:00:aa:d5:d1:
                    ec:55:3d:8f:63:6d:7e:78:b1:a6:3d:93:58:ef:6f:
                    c8:fb:da:de:27:32:48:ae:6d
                Exponent: 65537 (0x10001)
        X509v3 extensions:
            X509v3 Basic Constraints: 
                CA:FALSE
            Netscape Comment: 
                OpenSSL Generated Certificate
            X509v3 Subject Key Identifier: 
                51:5B:DE:CC:C9:DD:2A:5F:26:41:DE:9C:20:18:40:32:EF:56:7C:73
            X509v3 Authority Key Identifier: 
                keyid:85:C5:27:B6:66:23:EC:1E:4E:70:62:3E:3A:E7:97:38:12:13:7D:85

    Signature Algorithm: sha256WithRSAEncryption
         02:cf:66:9e:e3:20:aa:54:9c:92:aa:99:74:52:a5:63:0e:b4:
         c9:48:c2:5b:75:c6:80:20:ec:b5:88:0d:05:33:e4:5f:f7:02:
         c6:36:d3:2e:df:81:f4:60:90:89:db:d9:bc:ed:3a:d7:76:82:
         01:e3:99:74:3e:8a:15:d5:05:a0:27:31:9d:fc:6e:98:9e:5d:
         83:4d:1f:b8:ae:8f:82:8c:c9:ca:c2:47:1f:f8:c5:c4:28:6e:
         42:9f:84:77:33:af:aa:29:09:84:1b:c6:fd:da:86:0a:06:ca:
         87:56:ad:b9:d8:c2:10:80:e3:d8:ea:d2:81:72:7b:8d:ec:ea:
         63:6c:5e:0a:f4:29:22:39:f9:ca:86:95:10:bd:ad:fe:ff:b2:
         55:3a:ba:16:fe:e2:cc:1f:39:e9:39:07:57:02:79:d3:26:5a:
         57:a8:ef:5e:cb:12:f4:44:62:11:f0:3e:b6:53:df:91:ab:c3:
         18:30:de:b4:f1:6b:9c:12:36:eb:57:f6:75:ed:33:09:b7:e5:
         11:78:ef:46:c8:85:6b:bb:d1:9b:bf:2f:70:2f:76:58:81:0d:
         2c:76:ec:8f:0b:ac:e7:1e:97:a3:96:e9:a4:dd:e5:13:69:c6:
         96:70:fd:b5:d9:36:2b:e6:2c:9e:1c:86:07:61:3e:f6:7e:ff:
         25:21:3f:7c
-----BEGIN CERTIFICATE-----
MIIDZjCCAk6gAwIBAgIBBjANBgkqhkiG9w0BAQsFADCBrTELMAkGA1UEBhMCVVMx
CzAJBgNVBAgMAlVTMRAwDgYDVQQHDAdiZWlqaW5nMRcwFQYDVQQKDA5WZXJpU2ln
biwgSW5jLjEfMB0GA1UECwwWVmVyaVNpZ24gVHJ1c3QgTmV0d29yazFFMEMGA1UE
Aww8VmVyaVNpZ24gQ2xhc3MgMyBQdWJsaWMgUHJpbWFyeSBDZXJ0aWZpY2F0aW9u
IEF1dGhvcml0eSAtIEc1MB4XDTE1MTAwODA3MDE1MloXDTE2MTAwNzA3MDE1Mlow
RjELMAkGA1UEBhMCQ04xEDAOBgNVBAgMB2JlaWppbmcxCzAJBgNVBAoMAkNOMQsw
CQYDVQQLDAJDTjELMAkGA1UEAwwCQ04wgZ8wDQYJKoZIhvcNAQEBBQADgY0AMIGJ
AoGBAMKDicz5JG+xragoiOJUu1Xcp8H7joZCbnMa1HfZTjLvAEzzlREi6AUCzdEB
qLiXpGyoWg0miIoQvljYW7+YwYIC3gl9iVDB4bGKX50GHMuKWPFSc4tVa1xNzwD7
j5fPIEd6QwwAqtXR7FU9j2Ntfnixpj2TWO9vyPva3icySK5tAgMBAAGjezB5MAkG
A1UdEwQCMAAwLAYJYIZIAYb4QgENBB8WHU9wZW5TU0wgR2VuZXJhdGVkIENlcnRp
ZmljYXRlMB0GA1UdDgQWBBRRW97Myd0qXyZB3pwgGEAy71Z8czAfBgNVHSMEGDAW
gBSFxSe2ZiPsHk5wYj4655c4EhN9hTANBgkqhkiG9w0BAQsFAAOCAQEAAs9mnuMg
qlSckqqZdFKlYw60yUjCW3XGgCDstYgNBTPkX/cCxjbTLt+B9GCQidvZvO0613aC
AeOZdD6KFdUFoCcxnfxumJ5dg00fuK6PgozJysJHH/jFxChuQp+EdzOvqikJhBvG
/dqGCgbKh1atudjCEIDj2OrSgXJ7jezqY2xeCvQpIjn5yoaVEL2t/v+yVTq6Fv7i
zB856TkHVwJ50yZaV6jvXssS9ERiEfA+tlPfkavDGDDetPFrnBI261f2de0zCbfl
EXjvRsiFa7vRm78vcC92WIENLHbsjwus5x6Xo5bppN3lE2nGlnD9tdk2K+YsnhyG
B2E+9n7/JSE/fA==
-----END CERTIFICATE-----
