Certificate:
    Data:
        Version: 3 (0x2)
        Serial Number: 7 (0x7)
        Signature Algorithm: md5WithRSAEncryption
        Issuer: C=US, ST=US, L=US, O=VeriSign Class 3 Public Primary Certification Authority - G5, OU=VeriSign Trust Network, CN=VeriSign Class 3 Public Primary Certification Authority - G5
        Validity
            Not Before: Jun 16 11:53:25 2016 GMT
            Not After : Jun 16 11:53:25 2017 GMT
        Subject: C=CN, ST=Beijing, O=BeiJing Baidu Netcom Science Technology Co., Ltd, OU=service operation department, CN=*.baidu.com
        Subject Public Key Info:
            Public Key Algorithm: rsaEncryption
            RSA Public Key: (2048 bit)
                Modulus (2048 bit):
                    00:da:53:c7:09:cb:6b:1c:7a:06:8b:88:bf:6b:bf:
                    19:e9:4d:fb:ee:51:44:ba:89:9c:fa:79:ca:08:b8:
                    75:6c:f1:62:29:f5:a8:df:4f:df:98:8b:c8:af:0d:
                    09:a2:5d:18:f8:6a:58:a0:82:5c:d7:46:cc:53:ad:
                    7f:31:62:cf:d0:df:60:0d:69:67:c5:27:fb:24:7b:
                    4f:a3:28:c4:7d:aa:43:ea:d5:83:6c:a9:ce:2a:1f:
                    fa:1f:fe:26:b3:6c:16:2f:fb:ba:cf:2e:75:7c:b0:
                    aa:aa:b1:e6:fd:1c:f3:7b:42:a6:05:88:8f:14:de:
                    4a:c4:43:3c:43:a2:36:d3:31:8e:fc:25:a2:f2:f2:
                    66:d4:01:cc:5d:1e:8f:b3:1d:74:0a:2a:fb:d9:ec:
                    0d:c9:9f:80:8c:70:80:2d:e9:45:e3:e5:b4:77:98:
                    44:af:5d:cf:18:a9:ce:5c:9f:70:fb:a7:75:8a:4b:
                    91:c4:ad:c6:d2:06:10:4b:21:86:0c:34:cd:94:fa:
                    94:0a:2f:8b:da:26:90:cf:7e:a8:c1:2d:56:be:bf:
                    2a:91:7e:dc:47:ec:7f:6d:ba:89:95:5f:5d:c9:93:
                    9a:b9:c9:0d:66:35:0f:15:15:29:72:0e:af:ca:09:
                    27:84:ab:ae:80:4d:52:a4:46:9e:0b:48:13:7e:a9:
                    46:e9
                Exponent: 65537 (0x10001)
        X509v3 extensions:
            X509v3 Basic Constraints: 
                CA:FALSE
            X509v3 Key Usage: 
                Digital Signature, Non Repudiation, Key Encipherment
            X509v3 Subject Alternative Name: 
                DNS:*.baidu.com, DNS:*.hao123.org
    Signature Algorithm: md5WithRSAEncryption
        16:75:3d:75:b6:7b:2e:d9:06:25:8f:f7:0f:fb:49:91:46:0c:
        1c:b3:85:af:c1:cd:27:8c:5e:79:b1:96:b5:10:90:5a:76:08:
        ec:94:3c:c2:83:80:38:27:36:6f:be:cf:b1:54:0a:9d:36:7c:
        c9:f1:8d:ea:c7:a5:32:7a:68:4f:51:8e:b9:12:bc:92:78:75:
        0d:aa:b3:d7:68:65:3e:5f:76:54:29:03:bc:f9:92:e8:15:58:
        93:b5:5c:9f:cb:f4:15:88:4d:58:ff:83:87:1c:3c:c1:5f:c6:
        22:c5:f8:57:d0:67:1d:d4:71:a2:62:ae:65:e2:dc:e6:4e:45:
        44:46:a6:a6:3d:2b:5a:1b:5d:50:98:07:95:8b:9c:07:3e:30:
        2c:5b:99:ee:72:49:78:ca:c7:5d:ad:a1:ac:e2:dd:51:a2:b9:
        f0:25:ef:06:3d:4d:00:3c:fd:b2:cc:c4:3a:f6:3a:fe:1d:d5:
        4d:46:1e:21:b6:23:11:23:61:a5:6a:06:8c:f4:70:a0:74:0a:
        f2:d9:e0:61:de:4e:9e:cf:88:21:02:cf:3b:48:52:db:1b:c2:
        57:06:b5:77:18:bb:bc:b5:1e:7f:a5:61:88:ef:a8:f7:54:54:
        1c:12:9f:b1:c9:f7:ca:d7:d5:8a:9a:8d:93:f4:b4:60:b6:fe:
        ec:34:fe:92
-----BEGIN CERTIFICATE-----
MIIEKjCCAxKgAwIBAgIBBzANBgkqhkiG9w0BAQQFADCB1jELMAkGA1UEBhMCVVMx
CzAJBgNVBAgMAlVTMQswCQYDVQQHDAJVUzFFMEMGA1UECgw8VmVyaVNpZ24gQ2xh
c3MgMyBQdWJsaWMgUHJpbWFyeSBDZXJ0aWZpY2F0aW9uIEF1dGhvcml0eSAtIEc1
MR8wHQYDVQQLDBZWZXJpU2lnbiBUcnVzdCBOZXR3b3JrMUUwQwYDVQQDDDxWZXJp
U2lnbiBDbGFzcyAzIFB1YmxpYyBQcmltYXJ5IENlcnRpZmljYXRpb24gQXV0aG9y
aXR5IC0gRzUwHhcNMTYwNjE2MTE1MzI1WhcNMTcwNjE2MTE1MzI1WjCBlzELMAkG
A1UEBhMCQ04xEDAOBgNVBAgMB0JlaWppbmcxOTA3BgNVBAoMMEJlaUppbmcgQmFp
ZHUgTmV0Y29tIFNjaWVuY2UgVGVjaG5vbG9neSBDby4sIEx0ZDElMCMGA1UECwwc
c2VydmljZSBvcGVyYXRpb24gZGVwYXJ0bWVudDEUMBIGA1UEAwwLKi5iYWlkdS5j
b20wggEiMA0GCSqGSIb3DQEBAQUAA4IBDwAwggEKAoIBAQDaU8cJy2scegaLiL9r
vxnpTfvuUUS6iZz6ecoIuHVs8WIp9ajfT9+Yi8ivDQmiXRj4aligglzXRsxTrX8x
Ys/Q32ANaWfFJ/ske0+jKMR9qkPq1YNsqc4qH/of/iazbBYv+7rPLnV8sKqqseb9
HPN7QqYFiI8U3krEQzxDojbTMY78JaLy8mbUAcxdHo+zHXQKKvvZ7A3Jn4CMcIAt
6UXj5bR3mESvXc8Yqc5cn3D7p3WKS5HErcbSBhBLIYYMNM2U+pQKL4vaJpDPfqjB
LVa+vyqRftxH7H9tuomVX13Jk5q5yQ1mNQ8VFSlyDq/KCSeEq66ATVKkRp4LSBN+
qUbpAgMBAAGjQDA+MAkGA1UdEwQCMAAwCwYDVR0PBAQDAgXgMCQGA1UdEQQdMBuC
CyouYmFpZHUuY29tggwqLmhhbzEyMy5vcmcwDQYJKoZIhvcNAQEEBQADggEBABZ1
PXW2ey7ZBiWP9w/7SZFGDByzha/BzSeMXnmxlrUQkFp2COyUPMKDgDgnNm++z7FU
Cp02fMnxjerHpTJ6aE9RjrkSvJJ4dQ2qs9doZT5fdlQpA7z5kugVWJO1XJ/L9BWI
TVj/g4ccPMFfxiLF+FfQZx3UcaJirmXi3OZORURGpqY9K1obXVCYB5WLnAc+MCxb
me5ySXjKx12toazi3VGiufAl7wY9TQA8/bLMxDr2Ov4d1U1GHiG2IxEjYaVqBoz0
cKB0CvLZ4GHeTp7PiCECzztIUtsbwlcGtXcYu7y1Hn+lYYjvqPdUVBwSn7HJ98rX
1YqajZP0tGC2/uw0/pI=
-----END CERTIFICATE-----
