Certificate:
    Data:
        Version: 3 (0x2)
        Serial Number: 8 (0x8)
        Signature Algorithm: md5WithRSAEncryption
        Issuer: C=US, ST=US, L=US, O=VeriSign Class 3 Public Primary Certification Authority - G5, OU=VeriSign Trust Network, CN=VeriSign Class 3 Public Primary Certification Authority - G5
        Validity
            Not Before: Jun 17 02:19:09 2016 GMT
            Not After : Jun 17 02:19:09 2017 GMT
        Subject: C=CN, ST=Beijing, O=Beijing Sogou Technology Development Co., Ltd., OU=Technology and Engineering Department, CN=*.sogou.com
        Subject Public Key Info:
            Public Key Algorithm: rsaEncryption
            RSA Public Key: (2048 bit)
                Modulus (2048 bit):
                    00:ce:e6:df:a9:42:fc:88:99:59:7c:93:c0:bb:3d:
                    ef:ad:5d:d0:02:27:5e:31:8a:e0:07:1c:c2:a4:f3:
                    50:2b:9d:3b:dd:01:35:a4:8e:bd:73:fb:50:62:11:
                    81:3b:80:fd:c8:89:35:47:d8:78:2c:62:02:94:ed:
                    4e:88:4e:d7:34:81:a3:ce:b3:2b:ca:02:6b:01:05:
                    1a:df:01:a4:1a:77:a6:8c:df:fe:8c:af:d4:29:8f:
                    1a:8f:57:28:2e:0d:f3:4d:c0:08:ee:9e:b0:4d:66:
                    8d:bc:e5:95:36:a4:23:92:d5:71:9b:7b:cf:4a:b6:
                    45:cf:d6:ff:2e:58:81:b0:3a:52:5e:35:1d:d9:c9:
                    41:37:a3:50:4d:65:7b:24:d3:c0:47:c5:02:12:33:
                    82:7b:34:ad:95:19:d9:9c:af:83:72:ec:5a:2a:d7:
                    ba:11:21:7d:6a:fb:24:3b:5c:17:43:c8:23:cd:5b:
                    98:9e:f1:d4:5a:1b:e0:16:4a:cc:6a:41:15:30:6a:
                    55:97:f3:8c:a1:0f:d0:f9:b1:69:af:a5:d8:53:ab:
                    c1:91:62:c2:28:70:26:47:5d:08:f9:74:21:64:80:
                    0c:7e:b4:40:d7:b1:e7:b0:cf:4d:15:c5:88:72:03:
                    88:01:15:ba:57:42:e3:28:d2:cb:15:0e:89:59:d1:
                    d7:cf
                Exponent: 65537 (0x10001)
        X509v3 extensions:
            X509v3 Basic Constraints: 
                CA:FALSE
            X509v3 Key Usage: 
                Digital Signature, Non Repudiation, Key Encipherment
            X509v3 Subject Alternative Name: 
                DNS:*.baidu.com, DNS:*.hao123.com, DNS:*.sogou.com, DNS:*.360.cn, DNS:mp.weixin.qq.com, DNS:*.2345.com, DNS:*.duba.com
    Signature Algorithm: md5WithRSAEncryption
        38:c0:65:71:3d:d9:c6:06:f4:3a:c5:7e:9b:92:e1:8f:a4:35:
        63:b6:7c:49:b1:e3:db:52:1e:5c:8e:2c:ca:66:ed:31:59:26:
        71:52:ff:23:27:ef:89:f9:b9:00:fd:71:24:4f:e8:15:54:73:
        1d:56:1d:0c:2c:c1:d8:24:6e:2c:6c:78:2c:97:0b:07:d9:ae:
        67:f9:b3:57:2e:5c:f2:2a:fc:7e:5b:95:ef:f0:d3:5e:65:43:
        44:42:b9:d3:b3:e7:44:37:bf:30:42:4b:50:1d:7b:df:c0:1c:
        bc:80:65:09:5c:15:14:ab:00:33:47:7a:8d:bc:d1:f1:7d:70:
        63:93:8b:a3:e3:a9:04:b1:49:0d:27:c8:a2:d7:d0:58:1e:70:
        dc:82:4e:d9:34:a4:a5:b2:a1:80:de:80:db:c6:06:19:7c:5e:
        30:7e:61:5c:6b:fe:68:e6:c2:4b:29:1c:8b:a2:17:51:5d:33:
        09:0d:97:bb:0e:c1:11:3d:99:ec:2b:13:29:a5:f2:fe:ed:e3:
        37:b3:d4:3a:42:33:08:21:93:99:a7:27:c5:ef:aa:77:81:17:
        4b:88:80:f2:36:f4:76:64:3a:1f:e6:51:6e:d0:4b:f9:f5:12:
        b1:e6:3a:f4:0f:eb:3a:44:a8:a9:9e:09:1b:7e:5f:36:f5:51:
        6e:7d:bb:05
-----BEGIN CERTIFICATE-----
MIIEczCCA1ugAwIBAgIBCDANBgkqhkiG9w0BAQQFADCB1jELMAkGA1UEBhMCVVMx
CzAJBgNVBAgMAlVTMQswCQYDVQQHDAJVUzFFMEMGA1UECgw8VmVyaVNpZ24gQ2xh
c3MgMyBQdWJsaWMgUHJpbWFyeSBDZXJ0aWZpY2F0aW9uIEF1dGhvcml0eSAtIEc1
MR8wHQYDVQQLDBZWZXJpU2lnbiBUcnVzdCBOZXR3b3JrMUUwQwYDVQQDDDxWZXJp
U2lnbiBDbGFzcyAzIFB1YmxpYyBQcmltYXJ5IENlcnRpZmljYXRpb24gQXV0aG9y
aXR5IC0gRzUwHhcNMTYwNjE3MDIxOTA5WhcNMTcwNjE3MDIxOTA5WjCBnjELMAkG
A1UEBhMCQ04xEDAOBgNVBAgMB0JlaWppbmcxNzA1BgNVBAoMLkJlaWppbmcgU29n
b3UgVGVjaG5vbG9neSBEZXZlbG9wbWVudCBDby4sIEx0ZC4xLjAsBgNVBAsMJVRl
Y2hub2xvZ3kgYW5kIEVuZ2luZWVyaW5nIERlcGFydG1lbnQxFDASBgNVBAMMCyou
c29nb3UuY29tMIIBIjANBgkqhkiG9w0BAQEFAAOCAQ8AMIIBCgKCAQEAzubfqUL8
iJlZfJPAuz3vrV3QAideMYrgBxzCpPNQK5073QE1pI69c/tQYhGBO4D9yIk1R9h4
LGIClO1OiE7XNIGjzrMrygJrAQUa3wGkGnemjN/+jK/UKY8aj1coLg3zTcAI7p6w
TWaNvOWVNqQjktVxm3vPSrZFz9b/LliBsDpSXjUd2clBN6NQTWV7JNPAR8UCEjOC
ezStlRnZnK+DcuxaKte6ESF9avskO1wXQ8gjzVuYnvHUWhvgFkrMakEVMGpVl/OM
oQ/Q+bFpr6XYU6vBkWLCKHAmR10I+XQhZIAMfrRA17HnsM9NFcWIcgOIARW6V0Lj
KNLLFQ6JWdHXzwIDAQABo4GBMH8wCQYDVR0TBAIwADALBgNVHQ8EBAMCBeAwZQYD
VR0RBF4wXIILKi5iYWlkdS5jb22CDCouaGFvMTIzLmNvbYILKi5zb2dvdS5jb22C
CCouMzYwLmNughBtcC53ZWl4aW4ucXEuY29tggoqLjIzNDUuY29tggoqLmR1YmEu
Y29tMA0GCSqGSIb3DQEBBAUAA4IBAQA4wGVxPdnGBvQ6xX6bkuGPpDVjtnxJsePb
Uh5cjizKZu0xWSZxUv8jJ++J+bkA/XEkT+gVVHMdVh0MLMHYJG4sbHgslwsH2a5n
+bNXLlzyKvx+W5Xv8NNeZUNEQrnTs+dEN78wQktQHXvfwBy8gGUJXBUUqwAzR3qN
vNHxfXBjk4uj46kEsUkNJ8ii19BYHnDcgk7ZNKSlsqGA3oDbxgYZfF4wfmFca/5o
5sJLKRyLohdRXTMJDZe7DsERPZnsKxMppfL+7eM3s9Q6QjMIIZOZpyfF76p3gRdL
iIDyNvR2ZDof5lFu0Ev59RKx5jr0D+s6RKipngkbfl829VFufbsF
-----END CERTIFICATE-----
