Certificate:
    Data:
        Version: 3 (0x2)
        Serial Number: 9 (0x9)
        Signature Algorithm: md5WithRSAEncryption
        Issuer: C=US, ST=US, L=US, O=VeriSign, Inc., OU=VeriSign Trust Network, CN=VeriSign Class 3 Public Primary Certification Authority - G5
        Validity
            Not Before: Jun 17 02:25:24 2016 GMT
            Not After : Jun 17 02:25:24 2017 GMT
        Subject: C=CN, ST=Beijing, O=BeiJing Baidu Netcom Science Technology Co., Ltd, OU=service operation department, CN=*.baidu.com
        Subject Public Key Info:
            Public Key Algorithm: rsaEncryption
            RSA Public Key: (2048 bit)
                Modulus (2048 bit):
                    00:c7:2a:86:95:ef:fd:a2:27:32:b2:d1:f3:14:6e:
                    f8:7d:e4:03:7d:17:d4:98:fb:a2:57:34:84:f5:3e:
                    2e:57:52:dc:43:f1:28:bb:54:f2:48:f4:71:c6:e0:
                    95:79:a6:0d:38:1d:a7:60:30:8a:db:51:4e:df:15:
                    73:88:f9:64:2f:2e:96:31:09:07:75:20:54:22:b0:
                    3c:6b:41:89:f3:95:0b:a6:71:4f:d0:3d:49:89:68:
                    dc:61:dd:2a:5d:8d:57:b6:99:43:ba:9a:70:ab:91:
                    5b:46:57:39:49:cf:29:bc:1e:c5:14:51:13:d7:55:
                    77:36:28:d0:5f:1c:6b:50:7f:5a:c5:f1:f6:6e:14:
                    e7:0e:76:97:2d:7f:cf:b5:97:62:c0:97:8f:d8:65:
                    93:91:98:3d:43:d7:f1:a1:c8:aa:d1:de:ce:e1:d2:
                    6f:39:63:17:01:7d:85:1d:4a:0d:3e:e7:1e:3e:7e:
                    c1:cf:cc:bd:39:d0:e8:63:f1:bb:13:1d:9f:32:7f:
                    be:3c:1d:90:b1:55:35:18:4d:d7:65:1b:25:f5:ab:
                    a8:a4:87:36:e2:4c:c0:d1:33:8e:d1:05:e7:48:7b:
                    b5:35:db:1c:ef:50:2a:e0:08:21:27:37:fe:12:87:
                    e7:a2:38:18:d3:a7:55:26:0b:99:73:85:4b:7c:8e:
                    03:9f
                Exponent: 65537 (0x10001)
        X509v3 extensions:
            X509v3 Basic Constraints: 
                CA:FALSE
            X509v3 Key Usage: 
                Digital Signature, Non Repudiation, Key Encipherment
            X509v3 Subject Alternative Name: 
                DNS:*.baidu.com, DNS:*.hao123.com, DNS:*.sogou.com, DNS:*.360.cn, DNS:mp.weixin.qq.com, DNS:*.2345.com, DNS:*.duba.com
    Signature Algorithm: md5WithRSAEncryption
        ab:e7:a7:65:65:21:dc:3d:17:c3:49:28:6b:b4:5d:39:73:6d:
        40:31:f7:96:e6:03:fa:28:cf:b1:bd:85:c8:37:41:aa:fc:f9:
        68:ef:da:99:53:b4:9f:2b:57:a4:29:86:c5:f0:f7:da:3d:d1:
        b3:f6:9e:24:2c:fd:b0:c3:15:3e:dc:5d:ca:5d:fb:76:7b:19:
        18:53:7c:20:c9:38:75:31:94:e4:c1:96:60:dc:b9:92:1e:70:
        fd:6f:57:a4:54:4c:c2:4b:31:e1:fe:62:86:12:42:bd:0c:c5:
        ab:68:2a:57:a9:52:41:a1:b0:31:13:46:a2:04:33:6d:88:b1:
        4f:46:e8:97:71:6b:23:67:9f:d0:cd:7c:79:9b:3f:89:d3:14:
        35:5e:56:e1:93:8d:60:fa:97:76:ae:e3:9b:9a:d9:f2:03:70:
        ad:22:25:21:5c:74:78:36:71:9f:c0:f7:ba:93:fd:eb:f6:8d:
        04:07:22:99:4d:9e:e7:f2:0a:10:b3:c6:b5:34:57:1a:60:8a:
        de:e5:6f:ba:71:26:f6:3b:3e:98:10:b8:78:df:61:fe:d5:fc:
        89:7b:d8:c1:61:50:66:fd:02:20:28:e6:42:89:57:fc:63:8c:
        57:17:f7:d1:67:e1:92:b6:84:0c:c4:17:28:03:7f:75:cd:c3:
        aa:50:d9:4f
-----BEGIN CERTIFICATE-----
MIIEPjCCAyagAwIBAgIBCTANBgkqhkiG9w0BAQQFADCBqDELMAkGA1UEBhMCVVMx
CzAJBgNVBAgMAlVTMQswCQYDVQQHDAJVUzEXMBUGA1UECgwOVmVyaVNpZ24sIElu
Yy4xHzAdBgNVBAsMFlZlcmlTaWduIFRydXN0IE5ldHdvcmsxRTBDBgNVBAMMPFZl
cmlTaWduIENsYXNzIDMgUHVibGljIFByaW1hcnkgQ2VydGlmaWNhdGlvbiBBdXRo
b3JpdHkgLSBHNTAeFw0xNjA2MTcwMjI1MjRaFw0xNzA2MTcwMjI1MjRaMIGXMQsw
CQYDVQQGEwJDTjEQMA4GA1UECAwHQmVpamluZzE5MDcGA1UECgwwQmVpSmluZyBC
YWlkdSBOZXRjb20gU2NpZW5jZSBUZWNobm9sb2d5IENvLiwgTHRkMSUwIwYDVQQL
DBxzZXJ2aWNlIG9wZXJhdGlvbiBkZXBhcnRtZW50MRQwEgYDVQQDDAsqLmJhaWR1
LmNvbTCCASIwDQYJKoZIhvcNAQEBBQADggEPADCCAQoCggEBAMcqhpXv/aInMrLR
8xRu+H3kA30X1Jj7olc0hPU+LldS3EPxKLtU8kj0ccbglXmmDTgdp2AwittRTt8V
c4j5ZC8uljEJB3UgVCKwPGtBifOVC6ZxT9A9SYlo3GHdKl2NV7aZQ7qacKuRW0ZX
OUnPKbwexRRRE9dVdzYo0F8ca1B/WsXx9m4U5w52ly1/z7WXYsCXj9hlk5GYPUPX
8aHIqtHezuHSbzljFwF9hR1KDT7nHj5+wc/MvTnQ6GPxuxMdnzJ/vjwdkLFVNRhN
12UbJfWrqKSHNuJMwNEzjtEF50h7tTXbHO9QKuAIISc3/hKH56I4GNOnVSYLmXOF
S3yOA58CAwEAAaOBgTB/MAkGA1UdEwQCMAAwCwYDVR0PBAQDAgXgMGUGA1UdEQRe
MFyCCyouYmFpZHUuY29tggwqLmhhbzEyMy5jb22CCyouc29nb3UuY29tgggqLjM2
MC5jboIQbXAud2VpeGluLnFxLmNvbYIKKi4yMzQ1LmNvbYIKKi5kdWJhLmNvbTAN
BgkqhkiG9w0BAQQFAAOCAQEAq+enZWUh3D0Xw0koa7RdOXNtQDH3luYD+ijPsb2F
yDdBqvz5aO/amVO0nytXpCmGxfD32j3Rs/aeJCz9sMMVPtxdyl37dnsZGFN8IMk4
dTGU5MGWYNy5kh5w/W9XpFRMwksx4f5ihhJCvQzFq2gqV6lSQaGwMRNGogQzbYix
T0bol3FrI2ef0M18eZs/idMUNV5W4ZONYPqXdq7jm5rZ8gNwrSIlIVx0eDZxn8D3
upP96/aNBAcimU2e5/IKELPGtTRXGmCK3uVvunEm9js+mBC4eN9h/tX8iXvYwWFQ
Zv0CICjmQolX/GOMVxf30WfhkraEDMQXKAN/dc3DqlDZTw==
-----END CERTIFICATE-----
