Certificate:
    Data:
        Version: 3 (0x2)
        Serial Number: 10 (0xa)
        Signature Algorithm: md5WithRSAEncryption
        Issuer: C=US, ST=US, L=US, O=VeriSign, Inc., OU=VeriSign Trust Network, CN=VeriSign Class 3 Public Primary Certification Authority - G5
        Validity
            Not Before: Jun 17 03:36:57 2016 GMT
            Not After : Jun 17 03:36:57 2017 GMT
        Subject: C=CN, ST=Beijing, O=BeiJing Baidu Netcom Science Technology Co., Ltd, OU=service operation department, CN=*.baidu.com
        Subject Public Key Info:
            Public Key Algorithm: rsaEncryption
            RSA Public Key: (2048 bit)
                Modulus (2048 bit):
                    00:e0:15:22:3a:75:86:0e:17:9f:83:0a:d8:85:1c:
                    fe:6c:aa:be:86:81:1c:84:64:a0:c9:a3:08:e4:4b:
                    49:f3:bb:6b:ac:d7:fd:ee:5c:91:3b:39:67:a9:53:
                    ee:98:de:3a:ad:32:9e:88:57:01:64:14:48:64:55:
                    f4:f1:96:f8:e1:64:d6:a9:28:ed:c3:ed:25:54:18:
                    15:28:31:82:50:dc:47:0b:89:8c:83:ea:64:9d:50:
                    4f:de:7c:e2:d1:13:7a:c9:33:06:6c:89:ee:d3:49:
                    9c:6d:88:95:4a:0c:26:5a:b4:cb:ce:53:5f:20:0c:
                    42:a8:3b:6d:62:44:84:3e:24:90:2c:35:29:fd:62:
                    1e:a5:a1:a8:1c:e0:e1:a9:a7:60:71:0f:e6:9d:e6:
                    63:61:5a:4e:dd:b0:00:0e:5c:cf:bb:72:1b:1a:27:
                    5d:4f:aa:49:02:b0:f8:52:0c:d1:b1:9c:db:9a:f1:
                    0f:17:dd:e6:f7:7e:fe:93:00:3a:00:ee:1f:9d:c7:
                    56:21:72:59:cc:1e:34:21:63:bd:66:8c:4b:e9:05:
                    db:bd:81:16:a6:48:98:71:6e:b0:43:59:48:82:8a:
                    ed:5f:37:c9:aa:b2:4f:da:1e:df:23:bd:8f:ed:cf:
                    f6:c5:7e:13:26:61:da:53:54:98:d6:96:ae:6c:5a:
                    e9:c5
                Exponent: 65537 (0x10001)
        X509v3 extensions:
            X509v3 Basic Constraints: 
                CA:FALSE
            X509v3 Key Usage: 
                Digital Signature, Non Repudiation, Key Encipherment
            X509v3 Subject Alternative Name: 
                DNS:*.baidu.com, DNS:*.hao123.com, DNS:*.sogou.com, DNS:*.360.cn, DNS:mp.weixin.qq.com, DNS:*.2345.com, DNS:*.duba.com
    Signature Algorithm: md5WithRSAEncryption
        2a:d4:cc:4d:35:a0:69:d3:db:7a:6b:54:be:a5:d7:fc:4c:fa:
        04:04:6a:b7:5e:c8:88:32:64:75:9f:c0:e8:04:df:1b:ae:1a:
        94:bd:cb:f2:21:05:95:5a:b6:cc:17:69:48:31:21:fb:cd:c2:
        15:0b:e8:0d:d1:62:35:71:74:13:a9:cd:06:5b:6b:45:77:80:
        24:c0:af:b6:1e:7d:8a:44:95:ed:f0:8b:28:52:6c:ce:a0:45:
        bd:f5:21:40:f4:71:7a:b7:0c:10:72:53:61:86:93:84:71:76:
        9f:6e:dc:fe:85:bc:63:7f:13:b2:63:b4:5a:a0:a6:73:68:a3:
        e8:9a:6a:bc:e6:8a:4e:12:f8:58:74:c9:d0:5c:02:3b:6a:0e:
        18:fd:36:ce:a0:29:eb:b0:6d:02:3d:c4:3d:c2:2e:92:54:9e:
        92:56:62:12:a7:57:c5:7e:e5:d7:b2:5a:ff:da:56:7b:04:5f:
        6e:f9:73:94:fd:5d:ef:f8:8c:3a:9f:7f:52:e8:3d:82:42:4f:
        69:b2:d7:a4:61:c0:49:3a:3b:d9:79:38:e3:1b:f1:0d:9b:29:
        ed:0d:06:f6:a5:fe:1b:2f:41:f1:d8:57:9f:33:bb:06:05:7c:
        be:95:f1:71:58:d0:98:4f:74:a4:94:16:1e:26:92:73:37:7c:
        d1:db:f7:f0
-----BEGIN CERTIFICATE-----
MIIEPjCCAyagAwIBAgIBCjANBgkqhkiG9w0BAQQFADCBqDELMAkGA1UEBhMCVVMx
CzAJBgNVBAgMAlVTMQswCQYDVQQHDAJVUzEXMBUGA1UECgwOVmVyaVNpZ24sIElu
Yy4xHzAdBgNVBAsMFlZlcmlTaWduIFRydXN0IE5ldHdvcmsxRTBDBgNVBAMMPFZl
cmlTaWduIENsYXNzIDMgUHVibGljIFByaW1hcnkgQ2VydGlmaWNhdGlvbiBBdXRo
b3JpdHkgLSBHNTAeFw0xNjA2MTcwMzM2NTdaFw0xNzA2MTcwMzM2NTdaMIGXMQsw
CQYDVQQGEwJDTjEQMA4GA1UECAwHQmVpamluZzE5MDcGA1UECgwwQmVpSmluZyBC
YWlkdSBOZXRjb20gU2NpZW5jZSBUZWNobm9sb2d5IENvLiwgTHRkMSUwIwYDVQQL
DBxzZXJ2aWNlIG9wZXJhdGlvbiBkZXBhcnRtZW50MRQwEgYDVQQDDAsqLmJhaWR1
LmNvbTCCASIwDQYJKoZIhvcNAQEBBQADggEPADCCAQoCggEBAOAVIjp1hg4Xn4MK
2IUc/myqvoaBHIRkoMmjCORLSfO7a6zX/e5ckTs5Z6lT7pjeOq0ynohXAWQUSGRV
9PGW+OFk1qko7cPtJVQYFSgxglDcRwuJjIPqZJ1QT9584tETeskzBmyJ7tNJnG2I
lUoMJlq0y85TXyAMQqg7bWJEhD4kkCw1Kf1iHqWhqBzg4amnYHEP5p3mY2FaTt2w
AA5cz7tyGxonXU+qSQKw+FIM0bGc25rxDxfd5vd+/pMAOgDuH53HViFyWcweNCFj
vWaMS+kF272BFqZImHFusENZSIKK7V83yaqyT9oe3yO9j+3P9sV+EyZh2lNUmNaW
rmxa6cUCAwEAAaOBgTB/MAkGA1UdEwQCMAAwCwYDVR0PBAQDAgXgMGUGA1UdEQRe
MFyCCyouYmFpZHUuY29tggwqLmhhbzEyMy5jb22CCyouc29nb3UuY29tgggqLjM2
MC5jboIQbXAud2VpeGluLnFxLmNvbYIKKi4yMzQ1LmNvbYIKKi5kdWJhLmNvbTAN
BgkqhkiG9w0BAQQFAAOCAQEAKtTMTTWgadPbemtUvqXX/Ez6BARqt17IiDJkdZ/A
6ATfG64alL3L8iEFlVq2zBdpSDEh+83CFQvoDdFiNXF0E6nNBltrRXeAJMCvth59
ikSV7fCLKFJszqBFvfUhQPRxercMEHJTYYaThHF2n27c/oW8Y38TsmO0WqCmc2ij
6JpqvOaKThL4WHTJ0FwCO2oOGP02zqAp67BtAj3EPcIuklSeklZiEqdXxX7l17Ja
/9pWewRfbvlzlP1d7/iMOp9/Uug9gkJPabLXpGHASTo72Xk44xvxDZsp7Q0G9qX+
Gy9B8dhXnzO7BgV8vpXxcVjQmE90pJQWHiaSczd80dv38A==
-----END CERTIFICATE-----
