Certificate:
    Data:
        Version: 3 (0x2)
        Serial Number: 11 (0xb)
        Signature Algorithm: sha256WithRSAEncryption
        Issuer: C=US, ST=US, L=US, O=VeriSign Class 3 Public Primary Certification Authority - G5, OU=VeriSign Trust Network, CN=VeriSign, Inc.
        Validity
            Not Before: Jun 17 03:44:44 2016 GMT
            Not After : Jun 15 03:44:44 2026 GMT
        Subject: C=CN, ST=Beijing, O=BeiJing Baidu Netcom Science Technology Co., Ltd, OU=service operation department, CN=*.baidu.com
        Subject Public Key Info:
            Public Key Algorithm: rsaEncryption
            RSA Public Key: (2048 bit)
                Modulus (2048 bit):
                    00:ba:0a:59:08:8e:09:5a:7a:f1:28:ee:50:f0:07:
                    d0:b4:fc:18:8e:7e:d0:77:d0:d1:40:b5:47:cd:2c:
                    72:42:70:8b:29:3e:9c:6b:39:a1:14:9e:61:55:43:
                    9b:be:6a:91:1d:57:de:1b:23:7d:f3:c9:14:59:4c:
                    65:9f:02:96:fc:f5:c7:52:89:51:7c:71:a6:38:d2:
                    2e:ef:c1:81:09:10:52:72:65:af:a8:fd:ed:19:a3:
                    74:75:ae:ad:8b:df:cb:5c:6a:02:27:d9:e7:a3:4b:
                    c0:ea:c7:1b:39:e1:4e:c7:5b:79:b9:4a:25:14:c1:
                    71:fb:df:fa:5c:37:1e:a0:45:94:bb:04:f9:e4:a1:
                    6a:d7:3f:4e:e3:c4:ab:fd:6b:da:e8:fd:87:03:db:
                    c4:f2:6d:9d:19:89:d4:9c:84:cb:c2:e9:4d:12:10:
                    ae:db:c0:5f:86:24:ac:b6:ae:4e:d0:1e:ed:9c:95:
                    1b:74:db:ac:27:e9:45:e4:7c:8e:9d:05:96:2a:98:
                    e7:8a:d7:53:c0:be:e7:a7:1e:92:bb:bb:b3:05:aa:
                    7f:0d:14:e6:40:4a:3b:fa:b9:8b:55:88:47:9b:7b:
                    a5:7a:48:ed:96:9a:73:f2:5b:e6:3c:1c:0e:81:dd:
                    cb:c1:d8:22:64:18:83:6c:9f:88:1c:d0:33:b1:76:
                    6c:61
                Exponent: 65537 (0x10001)
        X509v3 extensions:
            X509v3 Basic Constraints: 
                CA:FALSE
            X509v3 Key Usage: 
                Digital Signature, Non Repudiation, Key Encipherment
            X509v3 Subject Alternative Name: 
                DNS:*.baidu.com, DNS:*.hao123.com, DNS:*.sogou.com, DNS:*.360.cn, DNS:mp.weixin.qq.com, DNS:*.2345.com, DNS:*.duba.com
    Signature Algorithm: sha256WithRSAEncryption
        04:f9:91:72:1e:1d:c1:61:3a:f0:24:aa:0a:26:c9:58:f0:e4:
        1b:6e:5e:a3:30:49:b2:32:ca:8a:62:da:ef:9f:f4:64:d5:ae:
        84:f3:83:45:03:8a:ee:18:05:d7:14:86:dd:52:94:a4:2f:bb:
        d0:cb:4c:f4:5a:5d:86:85:7f:5f:a5:a1:20:09:af:45:d0:ba:
        fb:bf:6e:da:cf:67:fd:3a:82:b0:a8:78:52:ba:49:53:8b:8f:
        07:2b:ec:54:11:8c:b5:51:98:0c:40:71:b6:7e:e1:7a:2a:00:
        e7:81:33:4b:8c:97:5b:ad:35:70:27:54:ce:60:7b:5a:88:39:
        db:ab:d8:46:4f:cc:7d:38:f6:78:61:a9:17:74:76:7e:e9:58:
        ba:ff:4c:65:ce:e6:eb:ee:52:29:b8:d6:a0:8e:55:28:43:31:
        37:e0:b7:9a:9e:b3:97:e2:87:35:0a:54:ca:ab:f4:08:fe:3b:
        05:4b:b9:bc:d4:e6:6f:a0:5e:46:e8:42:08:73:3a:f2:75:cf:
        30:06:c0:5a:02:7c:6d:ac:73:34:f4:1b:63:b5:df:20:e9:5e:
        6a:88:e0:91:22:f6:12:96:b7:4d:ac:2b:f2:c8:01:a5:bf:73:
        c0:c4:9c:b2:6a:bb:66:59:7d:2e:78:30:57:0d:63:fd:be:22:
        45:66:fe:58
-----BEGIN CERTIFICATE-----
MIIEPjCCAyagAwIBAgIBCzANBgkqhkiG9w0BAQsFADCBqDELMAkGA1UEBhMCVVMx
CzAJBgNVBAgMAlVTMQswCQYDVQQHDAJVUzFFMEMGA1UECgw8VmVyaVNpZ24gQ2xh
c3MgMyBQdWJsaWMgUHJpbWFyeSBDZXJ0aWZpY2F0aW9uIEF1dGhvcml0eSAtIEc1
MR8wHQYDVQQLDBZWZXJpU2lnbiBUcnVzdCBOZXR3b3JrMRcwFQYDVQQDDA5WZXJp
U2lnbiwgSW5jLjAeFw0xNjA2MTcwMzQ0NDRaFw0yNjA2MTUwMzQ0NDRaMIGXMQsw
CQYDVQQGEwJDTjEQMA4GA1UECAwHQmVpamluZzE5MDcGA1UECgwwQmVpSmluZyBC
YWlkdSBOZXRjb20gU2NpZW5jZSBUZWNobm9sb2d5IENvLiwgTHRkMSUwIwYDVQQL
DBxzZXJ2aWNlIG9wZXJhdGlvbiBkZXBhcnRtZW50MRQwEgYDVQQDDAsqLmJhaWR1
LmNvbTCCASIwDQYJKoZIhvcNAQEBBQADggEPADCCAQoCggEBALoKWQiOCVp68Sju
UPAH0LT8GI5+0HfQ0UC1R80sckJwiyk+nGs5oRSeYVVDm75qkR1X3hsjffPJFFlM
ZZ8Clvz1x1KJUXxxpjjSLu/BgQkQUnJlr6j97RmjdHWurYvfy1xqAifZ56NLwOrH
GznhTsdbeblKJRTBcfvf+lw3HqBFlLsE+eShatc/TuPEq/1r2uj9hwPbxPJtnRmJ
1JyEy8LpTRIQrtvAX4YkrLauTtAe7ZyVG3TbrCfpReR8jp0FliqY54rXU8C+56ce
kru7swWqfw0U5kBKO/q5i1WIR5t7pXpI7Zaac/Jb5jwcDoHdy8HYImQYg2yfiBzQ
M7F2bGECAwEAAaOBgTB/MAkGA1UdEwQCMAAwCwYDVR0PBAQDAgXgMGUGA1UdEQRe
MFyCCyouYmFpZHUuY29tggwqLmhhbzEyMy5jb22CCyouc29nb3UuY29tgggqLjM2
MC5jboIQbXAud2VpeGluLnFxLmNvbYIKKi4yMzQ1LmNvbYIKKi5kdWJhLmNvbTAN
BgkqhkiG9w0BAQsFAAOCAQEABPmRch4dwWE68CSqCibJWPDkG25eozBJsjLKimLa
75/0ZNWuhPODRQOK7hgF1xSG3VKUpC+70MtM9FpdhoV/X6WhIAmvRdC6+79u2s9n
/TqCsKh4UrpJU4uPByvsVBGMtVGYDEBxtn7heioA54EzS4yXW601cCdUzmB7Wog5
26vYRk/MfTj2eGGpF3R2fulYuv9MZc7m6+5SKbjWoI5VKEMxN+C3mp6zl+KHNQpU
yqv0CP47BUu5vNTmb6BeRuhCCHM68nXPMAbAWgJ8baxzNPQbY7XfIOleaojgkSL2
Epa3Tawr8sgBpb9zwMScsmq7Zll9LngwVw1j/b4iRWb+WA==
-----END CERTIFICATE-----
