Certificate:
    Data:
        Version: 3 (0x2)
        Serial Number: 12 (0xc)
    Signature Algorithm: sha256WithRSAEncryption
        Issuer: C=US, ST=US, L=US, O=VeriSign Class 3 Public Primary Certification Authority - G5, OU=VeriSign Trust Network, CN=VeriSign, Inc.
        Validity
            Not Before: Sep 27 03:01:36 2016 GMT
            Not After : Sep 25 03:01:36 2026 GMT
        Subject: C=CN, ST=HuBei, O=\xC3\xA6\xC2\xAD\xC2\xA6\xC3\xA6\xC2\xB1\xC2\x89\xC3\xA6\xC2\x96\xC2\x97\xC3\xA9\xC2\xB1\xC2\xBC\xC3\xA7\xC2\xBD\xC2\x91\xC3\xA7\xC2\xBB\xC2\x9C\xC3\xA7\xC2\xA7\xC2\x91\xC3\xA6\xC2\x8A\xC2\x80\xC3\xA6\xC2\x9C\xC2\x89\xC3\xA9\xC2\x99\xC2\x90\xC3\xA5\xC2\x85\xC2\xAC\xC3\xA5\xC2\x8F\xC2\xB8, OU=IT\xC3\xA9\xC2\x83\xC2\xA8, CN=*.douyu.com
        Subject Public Key Info:
            Public Key Algorithm: rsaEncryption
                Public-Key: (2048 bit)
                Modulus:
                    00:bc:da:a6:fe:9d:b2:7f:e3:87:2a:96:f7:40:bd:
                    fb:a1:b5:cd:0f:81:c5:58:97:e0:41:c0:3b:7c:00:
                    79:28:55:d3:4f:98:44:43:de:af:d1:ca:5a:52:36:
                    64:0f:b2:3a:c8:3d:7e:88:80:3f:44:4f:24:0b:61:
                    66:f8:6e:15:5c:af:1b:33:9b:a2:60:28:61:32:51:
                    40:c4:44:c8:9e:b6:25:89:2c:bd:1b:0c:2e:6a:0f:
                    94:26:2f:3f:93:3f:a3:4f:bb:53:bc:44:c5:6f:d8:
                    3c:08:bf:77:4b:5d:14:d9:57:b4:b5:70:aa:f4:60:
                    15:0f:8d:7c:ab:5d:4e:84:5c:3e:ec:91:7a:f4:09:
                    53:92:14:e9:dc:97:c9:41:9e:bd:6c:4b:36:01:d7:
                    e7:8f:87:04:fc:d6:9c:87:1c:8e:40:1f:f0:32:94:
                    9c:2b:dd:e8:7b:bf:32:8b:d4:0e:c7:ec:b3:92:01:
                    33:f4:2d:90:27:cf:25:7e:2f:c6:9a:fc:38:6e:7b:
                    44:5d:ec:24:dc:47:8e:a2:26:24:9a:ef:33:7c:db:
                    2d:f5:19:e1:9d:e2:da:6d:78:ed:b9:2d:94:48:00:
                    d8:24:9a:e1:c8:58:70:cf:a4:c3:e2:1a:a2:96:51:
                    81:a1:23:81:18:3c:32:ce:8e:49:b0:33:94:bd:9d:
                    eb:25
                Exponent: 65537 (0x10001)
        X509v3 extensions:
            X509v3 Basic Constraints: 
                CA:FALSE
            X509v3 Key Usage: 
                Digital Signature, Non Repudiation, Key Encipherment
            X509v3 Subject Alternative Name: 
                DNS:*.duyou.com
    Signature Algorithm: sha256WithRSAEncryption
         27:be:2b:9b:18:3a:33:d2:27:15:f3:53:e7:a2:89:a9:40:3f:
         77:d2:9a:d6:d6:7f:8b:65:27:38:4f:06:9b:93:8f:7e:16:80:
         da:15:36:39:02:1d:f7:be:df:a8:d3:50:d5:bb:96:95:77:0c:
         71:f4:73:71:5e:df:a6:f4:26:d5:95:f5:b1:7d:6e:40:1e:e9:
         42:5c:31:39:81:0f:1f:8b:86:1a:bc:18:b5:f9:09:b0:3a:0f:
         7a:54:15:0e:94:a1:7a:e8:1f:68:46:a5:53:c5:85:74:d9:64:
         95:9b:ff:6f:62:bc:c2:25:fc:f3:3a:6c:92:b8:f3:eb:1a:d1:
         89:77:e6:43:35:97:d4:ac:2f:f8:2c:bc:bd:c4:59:a3:fc:d3:
         d2:f6:b0:12:1b:55:c5:3d:b9:5f:5b:b1:a0:5f:d5:a7:94:a4:
         c8:1c:65:2e:94:4e:ed:b4:c1:a7:91:85:6c:2c:57:7b:91:8c:
         92:ed:61:34:ec:32:4c:dd:49:ef:2b:58:58:92:f5:10:de:23:
         fc:e5:d2:46:79:23:1e:97:dc:61:68:3d:38:f9:5b:d9:5c:e6:
         5f:d6:3a:0c:a4:b1:19:f9:3e:e3:b3:a9:83:95:2c:a5:3a:e4:
         49:8f:b7:fe:e4:14:66:bc:8e:85:b8:ea:d3:9c:fc:f9:8b:58:
         c5:fe:9e:1f
-----BEGIN CERTIFICATE-----
MIID8DCCAtigAwIBAgIBDDANBgkqhkiG9w0BAQsFADCBqDELMAkGA1UEBhMCVVMx
CzAJBgNVBAgMAlVTMQswCQYDVQQHDAJVUzFFMEMGA1UECgw8VmVyaVNpZ24gQ2xh
c3MgMyBQdWJsaWMgUHJpbWFyeSBDZXJ0aWZpY2F0aW9uIEF1dGhvcml0eSAtIEc1
MR8wHQYDVQQLDBZWZXJpU2lnbiBUcnVzdCBOZXR3b3JrMRcwFQYDVQQDDA5WZXJp
U2lnbiwgSW5jLjAeFw0xNjA5MjcwMzAxMzZaFw0yNjA5MjUwMzAxMzZaMIGZMQsw
CQYDVQQGEwJDTjEOMAwGA1UECAwFSHVCZWkxUTBPBgNVBAoMSMOmwq3CpsOmwrHC
icOmwpbCl8OpwrHCvMOnwr3CkcOnwrvCnMOnwqfCkcOmworCgMOmwpzCicOpwpnC
kMOlwoXCrMOlwo/CuDERMA8GA1UECwwISVTDqcKDwqgxFDASBgNVBAMMCyouZG91
eXUuY29tMIIBIjANBgkqhkiG9w0BAQEFAAOCAQ8AMIIBCgKCAQEAvNqm/p2yf+OH
Kpb3QL37obXND4HFWJfgQcA7fAB5KFXTT5hEQ96v0cpaUjZkD7I6yD1+iIA/RE8k
C2Fm+G4VXK8bM5uiYChhMlFAxETInrYliSy9Gwwuag+UJi8/kz+jT7tTvETFb9g8
CL93S10U2Ve0tXCq9GAVD418q11OhFw+7JF69AlTkhTp3JfJQZ69bEs2Adfnj4cE
/NachxyOQB/wMpScK93oe78yi9QOx+yzkgEz9C2QJ88lfi/Gmvw4bntEXewk3EeO
oiYkmu8zfNst9RnhneLabXjtuS2USADYJJrhyFhwz6TD4hqillGBoSOBGDwyzo5J
sDOUvZ3rJQIDAQABozIwMDAJBgNVHRMEAjAAMAsGA1UdDwQEAwIF4DAWBgNVHREE
DzANggsqLmR1eW91LmNvbTANBgkqhkiG9w0BAQsFAAOCAQEAJ74rmxg6M9InFfNT
56KJqUA/d9Ka1tZ/i2UnOE8Gm5OPfhaA2hU2OQId977fqNNQ1buWlXcMcfRzcV7f
pvQm1ZX1sX1uQB7pQlwxOYEPH4uGGrwYtfkJsDoPelQVDpSheugfaEalU8WFdNlk
lZv/b2K8wiX88zpskrjz6xrRiXfmQzWX1Kwv+Cy8vcRZo/zT0vawEhtVxT25X1ux
oF/Vp5SkyBxlLpRO7bTBp5GFbCxXe5GMku1hNOwyTN1J7ytYWJL1EN4j/OXSRnkj
HpfcYWg9OPlb2VzmX9Y6DKSxGfk+47Opg5UspTrkSY+3/uQUZryOhbjq05z8+YtY
xf6eHw==
-----END CERTIFICATE-----
