Certificate:
    Data:
        Version: 3 (0x2)
        Serial Number: 13 (0xd)
    Signature Algorithm: sha256WithRSAEncryption
        Issuer: C=US, ST=US, L=US, O=VeriSign Class 3 Public Primary Certification Authority - G5, OU=VeriSign Trust Network, CN=VeriSign, Inc.
        Validity
            Not Before: Sep 27 10:13:54 2016 GMT
            Not After : Sep 25 10:13:54 2026 GMT
        Subject: C=CN, ST=HuBei, O=\xC3\xA6\xC2\xAD\xC2\xA6\xC3\xA6\xC2\xB1\xC2\x89\xC3\xA6\xC2\x96\xC2\x97\xC3\xA9\xC2\xB1\xC2\xBC\xC3\xA7\xC2\xBD\xC2\x91\xC3\xA7\xC2\xBB\xC2\x9C\xC3\xA7\xC2\xA7\xC2\x91\xC3\xA6\xC2\x8A\xC2\x80\xC3\xA6\xC2\x9C\xC2\x89\xC3\xA9\xC2\x99\xC2\x90\xC3\xA5\xC2\x85\xC2\xAC\xC3\xA5\xC2\x8F\xC2\xB8, OU=IT\xC3\xA9\xC2\x83\xC2\xA8, CN=*.douyu.com
        Subject Public Key Info:
            Public Key Algorithm: rsaEncryption
                Public-Key: (2048 bit)
                Modulus:
                    00:bc:da:a6:fe:9d:b2:7f:e3:87:2a:96:f7:40:bd:
                    fb:a1:b5:cd:0f:81:c5:58:97:e0:41:c0:3b:7c:00:
                    79:28:55:d3:4f:98:44:43:de:af:d1:ca:5a:52:36:
                    64:0f:b2:3a:c8:3d:7e:88:80:3f:44:4f:24:0b:61:
                    66:f8:6e:15:5c:af:1b:33:9b:a2:60:28:61:32:51:
                    40:c4:44:c8:9e:b6:25:89:2c:bd:1b:0c:2e:6a:0f:
                    94:26:2f:3f:93:3f:a3:4f:bb:53:bc:44:c5:6f:d8:
                    3c:08:bf:77:4b:5d:14:d9:57:b4:b5:70:aa:f4:60:
                    15:0f:8d:7c:ab:5d:4e:84:5c:3e:ec:91:7a:f4:09:
                    53:92:14:e9:dc:97:c9:41:9e:bd:6c:4b:36:01:d7:
                    e7:8f:87:04:fc:d6:9c:87:1c:8e:40:1f:f0:32:94:
                    9c:2b:dd:e8:7b:bf:32:8b:d4:0e:c7:ec:b3:92:01:
                    33:f4:2d:90:27:cf:25:7e:2f:c6:9a:fc:38:6e:7b:
                    44:5d:ec:24:dc:47:8e:a2:26:24:9a:ef:33:7c:db:
                    2d:f5:19:e1:9d:e2:da:6d:78:ed:b9:2d:94:48:00:
                    d8:24:9a:e1:c8:58:70:cf:a4:c3:e2:1a:a2:96:51:
                    81:a1:23:81:18:3c:32:ce:8e:49:b0:33:94:bd:9d:
                    eb:25
                Exponent: 65537 (0x10001)
        X509v3 extensions:
            X509v3 Basic Constraints: 
                CA:FALSE
            X509v3 Key Usage: 
                Digital Signature, Non Repudiation, Key Encipherment
            X509v3 Subject Alternative Name: 
                DNS:*.duyou.com
    Signature Algorithm: sha256WithRSAEncryption
         27:73:cc:72:2e:31:69:2b:4b:bb:82:3b:c3:af:64:17:87:14:
         79:db:6a:70:aa:44:80:63:fe:ae:92:60:b8:f4:15:31:29:93:
         75:1e:05:a0:96:be:34:96:46:f9:6a:54:76:40:ab:eb:3d:3b:
         ce:e8:6b:da:80:15:a9:ec:d1:26:93:20:8e:2e:1a:99:f7:30:
         47:63:9a:c5:f4:01:a9:e3:b6:df:2d:0c:83:96:9d:93:21:bd:
         f1:01:db:ae:13:2d:25:74:a4:68:bd:a4:7c:6f:42:dc:f4:be:
         98:32:40:db:83:cd:6f:6b:e2:0d:21:8e:25:71:16:01:e2:bc:
         ac:0f:c9:2b:89:ed:fd:53:2f:68:37:da:68:ac:23:26:3d:49:
         f6:cc:9f:36:48:a1:bd:c8:de:bf:1d:d1:46:db:be:01:c1:12:
         8a:e7:5d:26:9b:ae:c0:2e:92:d8:1a:54:19:7b:b1:19:2f:7c:
         7b:f0:cd:30:e1:67:98:2f:38:16:be:c4:40:cb:79:5b:22:1e:
         21:25:4d:51:4a:13:50:0a:34:15:e5:cb:3c:b7:98:dd:cd:e5:
         34:c6:ac:84:0f:00:48:72:cc:2c:32:c8:28:32:68:6e:01:7c:
         89:b4:63:d2:6a:e3:19:0f:8d:a4:4c:b5:31:65:3e:75:97:16:
         30:07:de:4e
-----BEGIN CERTIFICATE-----
MIID8DCCAtigAwIBAgIBDTANBgkqhkiG9w0BAQsFADCBqDELMAkGA1UEBhMCVVMx
CzAJBgNVBAgMAlVTMQswCQYDVQQHDAJVUzFFMEMGA1UECgw8VmVyaVNpZ24gQ2xh
c3MgMyBQdWJsaWMgUHJpbWFyeSBDZXJ0aWZpY2F0aW9uIEF1dGhvcml0eSAtIEc1
MR8wHQYDVQQLDBZWZXJpU2lnbiBUcnVzdCBOZXR3b3JrMRcwFQYDVQQDDA5WZXJp
U2lnbiwgSW5jLjAeFw0xNjA5MjcxMDEzNTRaFw0yNjA5MjUxMDEzNTRaMIGZMQsw
CQYDVQQGEwJDTjEOMAwGA1UECAwFSHVCZWkxUTBPBgNVBAoMSMOmwq3CpsOmwrHC
icOmwpbCl8OpwrHCvMOnwr3CkcOnwrvCnMOnwqfCkcOmworCgMOmwpzCicOpwpnC
kMOlwoXCrMOlwo/CuDERMA8GA1UECwwISVTDqcKDwqgxFDASBgNVBAMMCyouZG91
eXUuY29tMIIBIjANBgkqhkiG9w0BAQEFAAOCAQ8AMIIBCgKCAQEAvNqm/p2yf+OH
Kpb3QL37obXND4HFWJfgQcA7fAB5KFXTT5hEQ96v0cpaUjZkD7I6yD1+iIA/RE8k
C2Fm+G4VXK8bM5uiYChhMlFAxETInrYliSy9Gwwuag+UJi8/kz+jT7tTvETFb9g8
CL93S10U2Ve0tXCq9GAVD418q11OhFw+7JF69AlTkhTp3JfJQZ69bEs2Adfnj4cE
/NachxyOQB/wMpScK93oe78yi9QOx+yzkgEz9C2QJ88lfi/Gmvw4bntEXewk3EeO
oiYkmu8zfNst9RnhneLabXjtuS2USADYJJrhyFhwz6TD4hqillGBoSOBGDwyzo5J
sDOUvZ3rJQIDAQABozIwMDAJBgNVHRMEAjAAMAsGA1UdDwQEAwIF4DAWBgNVHREE
DzANggsqLmR1eW91LmNvbTANBgkqhkiG9w0BAQsFAAOCAQEAJ3PMci4xaStLu4I7
w69kF4cUedtqcKpEgGP+rpJguPQVMSmTdR4FoJa+NJZG+WpUdkCr6z07zuhr2oAV
qezRJpMgji4amfcwR2OaxfQBqeO23y0Mg5adkyG98QHbrhMtJXSkaL2kfG9C3PS+
mDJA24PNb2viDSGOJXEWAeK8rA/JK4nt/VMvaDfaaKwjJj1J9syfNkihvcjevx3R
Rtu+AcESiuddJpuuwC6S2BpUGXuxGS98e/DNMOFnmC84Fr7EQMt5WyIeISVNUUoT
UAo0FeXLPLeY3c3lNMashA8ASHLMLDLIKDJobgF8ibRj0mrjGQ+NpEy1MWU+dZcW
MAfeTg==
-----END CERTIFICATE-----
