Certificate:
    Data:
        Version: 3 (0x2)
        Serial Number: 14 (0xe)
    Signature Algorithm: sha256WithRSAEncryption
        Issuer: C=US, ST=US, L=US, O=VeriSign Class 3 Public Primary Certification Authority - G5, OU=VeriSign Trust Network, CN=VeriSign, Inc.
        Validity
            Not Before: Sep 28 02:59:28 2016 GMT
            Not After : Sep 26 02:59:28 2026 GMT
        Subject: C=CN, ST=HuBei, O=Douyu Inc, OU=Douyu Orgnaziton\x1B[D\x1B[Dion, CN=*.douyu.com
        Subject Public Key Info:
            Public Key Algorithm: rsaEncryption
                Public-Key: (2048 bit)
                Modulus:
                    00:bc:da:a6:fe:9d:b2:7f:e3:87:2a:96:f7:40:bd:
                    fb:a1:b5:cd:0f:81:c5:58:97:e0:41:c0:3b:7c:00:
                    79:28:55:d3:4f:98:44:43:de:af:d1:ca:5a:52:36:
                    64:0f:b2:3a:c8:3d:7e:88:80:3f:44:4f:24:0b:61:
                    66:f8:6e:15:5c:af:1b:33:9b:a2:60:28:61:32:51:
                    40:c4:44:c8:9e:b6:25:89:2c:bd:1b:0c:2e:6a:0f:
                    94:26:2f:3f:93:3f:a3:4f:bb:53:bc:44:c5:6f:d8:
                    3c:08:bf:77:4b:5d:14:d9:57:b4:b5:70:aa:f4:60:
                    15:0f:8d:7c:ab:5d:4e:84:5c:3e:ec:91:7a:f4:09:
                    53:92:14:e9:dc:97:c9:41:9e:bd:6c:4b:36:01:d7:
                    e7:8f:87:04:fc:d6:9c:87:1c:8e:40:1f:f0:32:94:
                    9c:2b:dd:e8:7b:bf:32:8b:d4:0e:c7:ec:b3:92:01:
                    33:f4:2d:90:27:cf:25:7e:2f:c6:9a:fc:38:6e:7b:
                    44:5d:ec:24:dc:47:8e:a2:26:24:9a:ef:33:7c:db:
                    2d:f5:19:e1:9d:e2:da:6d:78:ed:b9:2d:94:48:00:
                    d8:24:9a:e1:c8:58:70:cf:a4:c3:e2:1a:a2:96:51:
                    81:a1:23:81:18:3c:32:ce:8e:49:b0:33:94:bd:9d:
                    eb:25
                Exponent: 65537 (0x10001)
        X509v3 extensions:
            X509v3 Basic Constraints: 
                CA:FALSE
            X509v3 Key Usage: 
                Digital Signature, Non Repudiation, Key Encipherment
            X509v3 Subject Alternative Name: 
                DNS:*.duyou.com
    Signature Algorithm: sha256WithRSAEncryption
         a7:39:9f:76:6e:9c:7f:72:fd:4a:94:64:c0:ea:1d:be:91:6b:
         62:d0:66:c5:bb:4e:a9:e2:fe:8f:9e:bc:8a:88:6d:e8:ea:cb:
         00:e7:31:75:fb:07:63:b8:fc:da:52:ee:a7:6a:8f:01:df:e8:
         af:af:ef:85:61:71:54:e0:ec:e9:de:61:12:ff:a3:c4:14:34:
         19:9c:44:89:25:7a:b3:4b:fc:08:56:1f:89:7e:6f:64:d8:fc:
         36:89:d7:1f:54:19:a6:3b:80:86:e9:99:94:34:d2:c9:b8:90:
         05:e0:bd:5a:21:25:0c:1e:28:ec:a0:91:92:48:3d:bd:9b:6d:
         ef:9c:1e:98:38:5e:0f:98:fb:b3:24:36:11:b4:7c:15:89:81:
         85:ad:dc:3a:7c:4b:c4:e1:be:7f:5a:58:86:56:9d:43:83:a4:
         ba:05:31:99:89:d2:72:db:b7:7e:40:7e:f5:95:9b:b8:90:05:
         a4:a8:ca:7c:df:f4:21:70:ae:50:7c:ec:e4:40:3f:02:2a:7d:
         0f:65:f2:f0:55:03:a6:c1:bf:0d:64:68:c5:f9:63:dc:d7:8b:
         ad:3d:5e:93:62:0d:b8:27:a7:aa:a0:a9:a9:3e:10:f5:21:b8:
         dc:3b:32:2f:d1:b5:4d:37:b6:fb:fb:3b:39:a1:f4:0b:a2:99:
         c1:da:7f:31
-----BEGIN CERTIFICATE-----
MIIDwTCCAqmgAwIBAgIBDjANBgkqhkiG9w0BAQsFADCBqDELMAkGA1UEBhMCVVMx
CzAJBgNVBAgMAlVTMQswCQYDVQQHDAJVUzFFMEMGA1UECgw8VmVyaVNpZ24gQ2xh
c3MgMyBQdWJsaWMgUHJpbWFyeSBDZXJ0aWZpY2F0aW9uIEF1dGhvcml0eSAtIEc1
MR8wHQYDVQQLDBZWZXJpU2lnbiBUcnVzdCBOZXR3b3JrMRcwFQYDVQQDDA5WZXJp
U2lnbiwgSW5jLjAeFw0xNjA5MjgwMjU5MjhaFw0yNjA5MjYwMjU5MjhaMGsxCzAJ
BgNVBAYTAkNOMQ4wDAYDVQQIDAVIdUJlaTESMBAGA1UECgwJRG91eXUgSW5jMSIw
IAYDVQQLDBlEb3V5dSBPcmduYXppdG9uG1tEG1tEaW9uMRQwEgYDVQQDDAsqLmRv
dXl1LmNvbTCCASIwDQYJKoZIhvcNAQEBBQADggEPADCCAQoCggEBALzapv6dsn/j
hyqW90C9+6G1zQ+BxViX4EHAO3wAeShV00+YREPer9HKWlI2ZA+yOsg9foiAP0RP
JAthZvhuFVyvGzObomAoYTJRQMREyJ62JYksvRsMLmoPlCYvP5M/o0+7U7xExW/Y
PAi/d0tdFNlXtLVwqvRgFQ+NfKtdToRcPuyRevQJU5IU6dyXyUGevWxLNgHX54+H
BPzWnIccjkAf8DKUnCvd6Hu/MovUDsfss5IBM/QtkCfPJX4vxpr8OG57RF3sJNxH
jqImJJrvM3zbLfUZ4Z3i2m147bktlEgA2CSa4chYcM+kw+IaopZRgaEjgRg8Ms6O
SbAzlL2d6yUCAwEAAaMyMDAwCQYDVR0TBAIwADALBgNVHQ8EBAMCBeAwFgYDVR0R
BA8wDYILKi5kdXlvdS5jb20wDQYJKoZIhvcNAQELBQADggEBAKc5n3ZunH9y/UqU
ZMDqHb6Ra2LQZsW7Tqni/o+evIqIbejqywDnMXX7B2O4/NpS7qdqjwHf6K+v74Vh
cVTg7OneYRL/o8QUNBmcRIklerNL/AhWH4l+b2TY/DaJ1x9UGaY7gIbpmZQ00sm4
kAXgvVohJQweKOygkZJIPb2bbe+cHpg4Xg+Y+7MkNhG0fBWJgYWt3Dp8S8Thvn9a
WIZWnUODpLoFMZmJ0nLbt35AfvWVm7iQBaSoynzf9CFwrlB87ORAPwIqfQ9l8vBV
A6bBvw1kaMX5Y9zXi609XpNiDbgnp6qgqak+EPUhuNw7Mi/RtU03tvv7Ozmh9Aui
mcHafzE=
-----END CERTIFICATE-----
