Certificate:
    Data:
        Version: 3 (0x2)
        Serial Number: 15 (0xf)
    Signature Algorithm: sha256WithRSAEncryption
        Issuer: C=US, ST=US, L=US, O=VeriSign Class 3 Public Primary Certification Authority - G5, OU=VeriSign Trust Network, CN=VeriSign, Inc.
        Validity
            Not Before: Sep 28 03:06:11 2016 GMT
            Not After : Sep 26 03:06:11 2026 GMT
        Subject: C=CN, ST=HuBei, O=Douyu Inc, OU=Douyu, CN=*.douyu.com
        Subject Public Key Info:
            Public Key Algorithm: rsaEncryption
                Public-Key: (2048 bit)
                Modulus:
                    00:bc:da:a6:fe:9d:b2:7f:e3:87:2a:96:f7:40:bd:
                    fb:a1:b5:cd:0f:81:c5:58:97:e0:41:c0:3b:7c:00:
                    79:28:55:d3:4f:98:44:43:de:af:d1:ca:5a:52:36:
                    64:0f:b2:3a:c8:3d:7e:88:80:3f:44:4f:24:0b:61:
                    66:f8:6e:15:5c:af:1b:33:9b:a2:60:28:61:32:51:
                    40:c4:44:c8:9e:b6:25:89:2c:bd:1b:0c:2e:6a:0f:
                    94:26:2f:3f:93:3f:a3:4f:bb:53:bc:44:c5:6f:d8:
                    3c:08:bf:77:4b:5d:14:d9:57:b4:b5:70:aa:f4:60:
                    15:0f:8d:7c:ab:5d:4e:84:5c:3e:ec:91:7a:f4:09:
                    53:92:14:e9:dc:97:c9:41:9e:bd:6c:4b:36:01:d7:
                    e7:8f:87:04:fc:d6:9c:87:1c:8e:40:1f:f0:32:94:
                    9c:2b:dd:e8:7b:bf:32:8b:d4:0e:c7:ec:b3:92:01:
                    33:f4:2d:90:27:cf:25:7e:2f:c6:9a:fc:38:6e:7b:
                    44:5d:ec:24:dc:47:8e:a2:26:24:9a:ef:33:7c:db:
                    2d:f5:19:e1:9d:e2:da:6d:78:ed:b9:2d:94:48:00:
                    d8:24:9a:e1:c8:58:70:cf:a4:c3:e2:1a:a2:96:51:
                    81:a1:23:81:18:3c:32:ce:8e:49:b0:33:94:bd:9d:
                    eb:25
                Exponent: 65537 (0x10001)
        X509v3 extensions:
            X509v3 Basic Constraints: 
                CA:FALSE
            X509v3 Key Usage: 
                Digital Signature, Non Repudiation, Key Encipherment
            X509v3 Subject Alternative Name: 
                DNS:*.duyou.com
    Signature Algorithm: sha256WithRSAEncryption
         b7:eb:8b:53:55:d5:8e:ee:aa:8d:0f:30:29:43:21:7b:4c:ba:
         05:84:56:8a:60:08:76:6f:1d:33:df:09:37:ca:d1:ed:79:0f:
         a1:25:f2:84:f8:79:7f:40:a4:bf:34:93:2d:1f:43:2f:e2:04:
         5f:4a:f3:bf:89:20:d9:1c:8a:15:a0:4b:16:44:f4:b8:17:07:
         b2:5c:c4:2b:3f:9c:0c:cd:0f:f8:2b:4f:34:e1:f6:8b:dc:03:
         1b:32:3c:64:22:6d:2b:0e:03:8e:63:4d:6a:8d:e4:1a:2d:a2:
         21:5e:11:11:d5:f9:40:c5:db:a6:74:ef:16:b8:1f:9d:8e:f4:
         70:84:91:00:0a:45:36:b4:24:98:47:93:d4:7a:55:fa:71:81:
         26:89:85:89:af:7d:46:54:5a:b4:b9:87:1b:71:86:d2:24:44:
         9a:bc:6e:d1:e7:ca:fb:23:53:35:e3:0c:7f:e0:43:a1:c2:46:
         57:36:9a:4d:f1:5e:ca:99:60:b2:a2:d1:9c:34:93:1f:60:5a:
         37:d9:39:e2:52:43:99:28:d2:9a:e5:b9:a7:d3:d4:4a:89:61:
         8d:99:3d:98:b0:68:b3:3f:21:9d:8f:87:91:4a:f3:4c:4c:09:
         52:9b:b0:ea:a3:5a:96:38:6d:c6:de:c2:5a:ac:3a:d0:5e:37:
         3a:3a:f5:f2
-----BEGIN CERTIFICATE-----
MIIDrTCCApWgAwIBAgIBDzANBgkqhkiG9w0BAQsFADCBqDELMAkGA1UEBhMCVVMx
CzAJBgNVBAgMAlVTMQswCQYDVQQHDAJVUzFFMEMGA1UECgw8VmVyaVNpZ24gQ2xh
c3MgMyBQdWJsaWMgUHJpbWFyeSBDZXJ0aWZpY2F0aW9uIEF1dGhvcml0eSAtIEc1
MR8wHQYDVQQLDBZWZXJpU2lnbiBUcnVzdCBOZXR3b3JrMRcwFQYDVQQDDA5WZXJp
U2lnbiwgSW5jLjAeFw0xNjA5MjgwMzA2MTFaFw0yNjA5MjYwMzA2MTFaMFcxCzAJ
BgNVBAYTAkNOMQ4wDAYDVQQIDAVIdUJlaTESMBAGA1UECgwJRG91eXUgSW5jMQ4w
DAYDVQQLDAVEb3V5dTEUMBIGA1UEAwwLKi5kb3V5dS5jb20wggEiMA0GCSqGSIb3
DQEBAQUAA4IBDwAwggEKAoIBAQC82qb+nbJ/44cqlvdAvfuhtc0PgcVYl+BBwDt8
AHkoVdNPmERD3q/RylpSNmQPsjrIPX6IgD9ETyQLYWb4bhVcrxszm6JgKGEyUUDE
RMietiWJLL0bDC5qD5QmLz+TP6NPu1O8RMVv2DwIv3dLXRTZV7S1cKr0YBUPjXyr
XU6EXD7skXr0CVOSFOncl8lBnr1sSzYB1+ePhwT81pyHHI5AH/AylJwr3eh7vzKL
1A7H7LOSATP0LZAnzyV+L8aa/Dhue0Rd7CTcR46iJiSa7zN82y31GeGd4tpteO25
LZRIANgkmuHIWHDPpMPiGqKWUYGhI4EYPDLOjkmwM5S9neslAgMBAAGjMjAwMAkG
A1UdEwQCMAAwCwYDVR0PBAQDAgXgMBYGA1UdEQQPMA2CCyouZHV5b3UuY29tMA0G
CSqGSIb3DQEBCwUAA4IBAQC364tTVdWO7qqNDzApQyF7TLoFhFaKYAh2bx0z3wk3
ytHteQ+hJfKE+Hl/QKS/NJMtH0Mv4gRfSvO/iSDZHIoVoEsWRPS4FweyXMQrP5wM
zQ/4K0804faL3AMbMjxkIm0rDgOOY01qjeQaLaIhXhER1flAxdumdO8WuB+djvRw
hJEACkU2tCSYR5PUelX6cYEmiYWJr31GVFq0uYcbcYbSJESavG7R58r7I1M14wx/
4EOhwkZXNppN8V7KmWCyotGcNJMfYFo32TniUkOZKNKa5bmn09RKiWGNmT2YsGiz
PyGdj4eRSvNMTAlSm7Dqo1qWOG3G3sJarDrQXjc6OvXy
-----END CERTIFICATE-----
