Certificate:
    Data:
        Version: 3 (0x2)
        Serial Number: 16 (0x10)
    Signature Algorithm: sha256WithRSAEncryption
        Issuer: C=US, ST=US, L=US, O=VeriSign Class 3 Public Primary Certification Authority - G5, OU=VeriSign Trust Network, CN=VeriSign, Inc.
        Validity
            Not Before: Sep 28 03:18:32 2016 GMT
            Not After : Sep 26 03:18:32 2026 GMT
        Subject: C=CN, ST=HuBei, O=Douyu Inc, OU=Douyu Inc, CN=*.douyu.com
        Subject Public Key Info:
            Public Key Algorithm: rsaEncryption
                Public-Key: (2048 bit)
                Modulus:
                    00:bf:bd:3f:9d:7e:74:0c:27:71:2f:84:2b:5b:97:
                    3d:96:bd:13:24:7e:22:f9:33:47:1c:d1:a2:c2:dd:
                    d1:d2:ed:81:a2:7d:33:d4:01:fb:39:b3:d4:8c:1a:
                    1d:35:23:25:df:48:c8:94:b9:26:1c:06:ae:63:19:
                    cb:5e:75:20:88:5f:68:c9:bd:fc:62:8b:3d:bb:24:
                    03:92:d7:0b:a1:7a:21:8c:f0:d5:57:44:2e:6f:01:
                    17:44:8f:3d:54:a6:a3:d7:ce:f6:9a:b3:52:64:d9:
                    08:d9:03:c6:9d:a6:1d:97:d7:1d:84:5c:fb:67:32:
                    d1:d3:7b:9f:62:c4:3c:69:65:f1:a8:5d:4c:66:1f:
                    4a:59:d0:75:00:ee:0b:cc:44:af:ff:9b:27:5b:26:
                    ef:ca:c4:b1:3c:94:b1:70:da:4d:f5:18:94:2e:30:
                    cf:82:35:3e:0f:9e:52:68:33:63:35:ee:8a:1d:a3:
                    4e:97:0d:60:81:8e:03:1e:fc:05:2d:f6:61:54:e5:
                    b9:c6:5b:03:7f:fa:ce:50:fa:01:45:fa:e1:e1:23:
                    39:06:67:bb:62:34:ef:18:61:ed:9f:af:ff:c3:7e:
                    de:41:38:a3:46:dd:a0:be:8b:d2:9b:c5:ce:01:43:
                    be:07:52:dc:b2:1d:eb:5b:ce:dd:f7:68:9e:55:7f:
                    c6:6f
                Exponent: 65537 (0x10001)
        X509v3 extensions:
            X509v3 Basic Constraints: 
                CA:FALSE
            X509v3 Key Usage: 
                Digital Signature, Non Repudiation, Key Encipherment
            X509v3 Subject Alternative Name: 
                DNS:*.douyu.com, DNS:douyu.com
    Signature Algorithm: sha256WithRSAEncryption
         a6:79:7e:0e:84:cf:4a:b8:2e:b5:c8:e1:5d:6a:fb:bf:27:61:
         b6:b4:c3:6c:da:26:75:47:ee:82:d0:fd:1a:56:c2:88:9d:61:
         76:8b:52:bc:7e:b6:56:9f:44:e6:d9:43:8a:1d:31:7e:0c:14:
         85:71:7d:b1:84:49:9c:04:83:4b:51:1d:4f:c9:5c:74:85:12:
         55:58:65:bd:a8:d3:29:1a:03:23:64:47:b5:98:6a:fb:90:5b:
         36:fa:af:44:79:2c:c6:76:5a:43:48:ac:d3:62:a3:d3:40:06:
         1e:1f:19:5c:70:df:c6:5d:d0:ca:55:b1:56:63:8e:b5:74:68:
         eb:5a:d6:09:79:4f:af:f8:87:5b:2f:95:a2:78:48:62:d3:86:
         32:a1:5c:44:2a:5d:23:2e:6a:d3:0c:3b:48:49:d7:41:ba:5e:
         ff:d1:d8:05:1b:9f:9b:e1:6d:86:09:cf:24:4f:1a:3f:dd:46:
         42:c7:bb:b4:e5:70:1b:1f:e9:c0:08:73:21:05:17:a3:ed:28:
         ba:87:60:e3:85:1f:b7:1b:ac:0f:85:29:4a:ae:2e:eb:87:ec:
         65:b8:93:b4:58:ff:e4:9f:aa:65:5b:11:57:b1:73:6c:04:da:
         1f:de:9f:5d:6b:eb:19:4b:3e:42:c3:fe:02:c1:02:e6:8c:9a:
         67:01:c8:82
-----BEGIN CERTIFICATE-----
MIIDvDCCAqSgAwIBAgIBEDANBgkqhkiG9w0BAQsFADCBqDELMAkGA1UEBhMCVVMx
CzAJBgNVBAgMAlVTMQswCQYDVQQHDAJVUzFFMEMGA1UECgw8VmVyaVNpZ24gQ2xh
c3MgMyBQdWJsaWMgUHJpbWFyeSBDZXJ0aWZpY2F0aW9uIEF1dGhvcml0eSAtIEc1
MR8wHQYDVQQLDBZWZXJpU2lnbiBUcnVzdCBOZXR3b3JrMRcwFQYDVQQDDA5WZXJp
U2lnbiwgSW5jLjAeFw0xNjA5MjgwMzE4MzJaFw0yNjA5MjYwMzE4MzJaMFsxCzAJ
BgNVBAYTAkNOMQ4wDAYDVQQIDAVIdUJlaTESMBAGA1UECgwJRG91eXUgSW5jMRIw
EAYDVQQLDAlEb3V5dSBJbmMxFDASBgNVBAMMCyouZG91eXUuY29tMIIBIjANBgkq
hkiG9w0BAQEFAAOCAQ8AMIIBCgKCAQEAv70/nX50DCdxL4QrW5c9lr0TJH4i+TNH
HNGiwt3R0u2Bon0z1AH7ObPUjBodNSMl30jIlLkmHAauYxnLXnUgiF9oyb38Yos9
uyQDktcLoXohjPDVV0QubwEXRI89VKaj1872mrNSZNkI2QPGnaYdl9cdhFz7ZzLR
03ufYsQ8aWXxqF1MZh9KWdB1AO4LzESv/5snWybvysSxPJSxcNpN9RiULjDPgjU+
D55SaDNjNe6KHaNOlw1ggY4DHvwFLfZhVOW5xlsDf/rOUPoBRfrh4SM5Bme7YjTv
GGHtn6//w37eQTijRt2gvovSm8XOAUO+B1Lcsh3rW87d92ieVX/GbwIDAQABoz0w
OzAJBgNVHRMEAjAAMAsGA1UdDwQEAwIF4DAhBgNVHREEGjAYggsqLmRvdXl1LmNv
bYIJZG91eXUuY29tMA0GCSqGSIb3DQEBCwUAA4IBAQCmeX4OhM9KuC61yOFdavu/
J2G2tMNs2iZ1R+6C0P0aVsKInWF2i1K8frZWn0Tm2UOKHTF+DBSFcX2xhEmcBINL
UR1PyVx0hRJVWGW9qNMpGgMjZEe1mGr7kFs2+q9EeSzGdlpDSKzTYqPTQAYeHxlc
cN/GXdDKVbFWY461dGjrWtYJeU+v+IdbL5WieEhi04YyoVxEKl0jLmrTDDtISddB
ul7/0dgFG5+b4W2GCc8kTxo/3UZCx7u05XAbH+nACHMhBRej7Si6h2DjhR+3G6wP
hSlKri7rh+xluJO0WP/kn6plWxFXsXNsBNof3p9da+sZSz5Cw/4CwQLmjJpnAciC
-----END CERTIFICATE-----
