Certificate:
    Data:
        Version: 3 (0x2)
        Serial Number: 17 (0x11)
    Signature Algorithm: sha256WithRSAEncryption
        Issuer: C=CN, ST=HuBei, L=Wuhan, O=Douyu Inc, OU=Douyu Inc, CN=VeriSign, Inc.
        Validity
            Not Before: Sep 30 10:24:03 2016 GMT
            Not After : Sep 28 10:24:03 2026 GMT
        Subject: C=CN, ST=HuBei, O=Douyu Inc, OU=Douyu Inc, CN=*.douyu.com
        Subject Public Key Info:
            Public Key Algorithm: rsaEncryption
                Public-Key: (2048 bit)
                Modulus:
                    00:b9:58:7a:ed:7a:3e:24:a2:d3:94:cd:19:d7:68:
                    91:f4:b2:fc:07:d0:6d:b7:83:58:bd:b6:cd:28:48:
                    43:ba:47:ba:99:bb:a5:60:72:43:59:bf:e7:f8:9e:
                    15:26:3e:c0:23:2e:4f:26:32:83:86:dc:e1:d8:05:
                    b1:15:6d:67:a7:a0:f8:21:04:30:4b:a0:77:74:99:
                    c0:3e:90:66:90:68:60:18:b6:93:24:fe:fe:87:93:
                    0c:c3:be:1b:5e:77:6b:d0:e2:ad:44:10:d3:81:01:
                    a3:22:86:ff:8c:01:8b:af:7f:45:a9:bd:3c:27:01:
                    ec:7e:b7:cc:4e:9d:e0:bf:32:88:42:bf:fb:be:b8:
                    a9:06:03:ff:05:18:e7:b4:38:89:49:c1:ab:12:f7:
                    71:65:b5:a8:af:69:8b:57:a1:36:68:24:bd:55:3c:
                    5b:c7:43:60:9a:7a:7c:c2:35:7e:63:74:3c:30:23:
                    b9:be:41:6e:d3:ea:2f:c1:3e:35:a8:cc:9f:6a:79:
                    b2:9f:d3:6a:b6:89:bd:5e:9d:99:17:08:7b:62:7b:
                    ac:24:f4:29:45:a0:28:d9:89:ca:25:e0:c1:4e:1c:
                    c0:72:7e:97:c5:a3:cd:4c:de:2f:4c:4a:2e:d8:2c:
                    a4:cc:8f:c6:75:d4:a5:f7:6c:3a:23:4f:c7:08:45:
                    96:a9
                Exponent: 65537 (0x10001)
        X509v3 extensions:
            X509v3 Basic Constraints: 
                CA:FALSE
            X509v3 Key Usage: 
                Digital Signature, Non Repudiation, Key Encipherment
            X509v3 Subject Alternative Name: 
                DNS:*.douyu.com, DNS:douyu.com, DNS:*.douyucdn.cn, DNS:douyucdn.cn
    Signature Algorithm: sha256WithRSAEncryption
         61:39:93:33:af:29:14:81:67:90:a9:9b:6e:82:a6:0d:79:1d:
         72:df:2d:cf:2e:42:4b:9d:b5:72:22:a9:18:11:be:9c:90:77:
         4e:24:86:a8:ad:3e:8a:85:a5:5f:52:43:ef:b9:14:5d:be:53:
         8e:74:55:fa:85:9f:21:04:b3:03:c0:9e:59:4b:3e:0e:4a:c6:
         35:70:a5:4c:07:a1:87:5f:aa:dc:fe:dd:b3:84:20:46:2a:e7:
         55:9b:55:94:40:4d:d2:5e:09:45:65:ca:f5:3a:1c:d4:9a:12:
         61:59:cc:82:e1:f8:d1:52:cd:44:c3:8c:3f:7a:89:fe:ce:d7:
         82:17:07:25:80:1d:ec:85:4a:d9:46:dd:65:03:01:ae:5a:6e:
         ca:90:16:bf:f9:b3:11:b2:d3:3d:bb:92:8b:52:eb:85:64:cf:
         bd:55:77:42:26:82:fc:9b:8d:65:a7:40:90:0a:b1:34:c3:30:
         5d:7b:0e:58:1e:24:cb:83:0b:30:ab:00:b4:6b:14:55:52:17:
         be:5d:c0:d3:56:74:bc:61:82:c3:f4:c5:e1:6a:16:bd:6f:a5:
         10:75:63:b0:dc:f1:8b:62:d5:a6:5b:81:a5:3e:da:4e:25:53:
         e4:ac:5e:ac:78:44:8d:7c:7e:e0:60:7d:8b:c2:5e:9e:cc:29:
         19:0b:8b:c4
-----BEGIN CERTIFICATE-----
MIIDnTCCAoWgAwIBAgIBETANBgkqhkiG9w0BAQsFADBuMQswCQYDVQQGEwJDTjEO
MAwGA1UECAwFSHVCZWkxDjAMBgNVBAcMBVd1aGFuMRIwEAYDVQQKDAlEb3V5dSBJ
bmMxEjAQBgNVBAsMCURvdXl1IEluYzEXMBUGA1UEAwwOVmVyaVNpZ24sIEluYy4w
HhcNMTYwOTMwMTAyNDAzWhcNMjYwOTI4MTAyNDAzWjBbMQswCQYDVQQGEwJDTjEO
MAwGA1UECAwFSHVCZWkxEjAQBgNVBAoMCURvdXl1IEluYzESMBAGA1UECwwJRG91
eXUgSW5jMRQwEgYDVQQDDAsqLmRvdXl1LmNvbTCCASIwDQYJKoZIhvcNAQEBBQAD
ggEPADCCAQoCggEBALlYeu16PiSi05TNGddokfSy/AfQbbeDWL22zShIQ7pHupm7
pWByQ1m/5/ieFSY+wCMuTyYyg4bc4dgFsRVtZ6eg+CEEMEugd3SZwD6QZpBoYBi2
kyT+/oeTDMO+G153a9DirUQQ04EBoyKG/4wBi69/Ram9PCcB7H63zE6d4L8yiEK/
+764qQYD/wUY57Q4iUnBqxL3cWW1qK9pi1ehNmgkvVU8W8dDYJp6fMI1fmN0PDAj
ub5BbtPqL8E+NajMn2p5sp/TaraJvV6dmRcIe2J7rCT0KUWgKNmJyiXgwU4cwHJ+
l8WjzUzeL0xKLtgspMyPxnXUpfdsOiNPxwhFlqkCAwEAAaNZMFcwCQYDVR0TBAIw
ADALBgNVHQ8EBAMCBeAwPQYDVR0RBDYwNIILKi5kb3V5dS5jb22CCWRvdXl1LmNv
bYINKi5kb3V5dWNkbi5jboILZG91eXVjZG4uY24wDQYJKoZIhvcNAQELBQADggEB
AGE5kzOvKRSBZ5Cpm26Cpg15HXLfLc8uQkudtXIiqRgRvpyQd04khqitPoqFpV9S
Q++5FF2+U450VfqFnyEEswPAnllLPg5KxjVwpUwHoYdfqtz+3bOEIEYq51WbVZRA
TdJeCUVlyvU6HNSaEmFZzILh+NFSzUTDjD96if7O14IXByWAHeyFStlG3WUDAa5a
bsqQFr/5sxGy0z27kotS64Vkz71Vd0ImgvybjWWnQJAKsTTDMF17DlgeJMuDCzCr
ALRrFFVSF75dwNNWdLxhgsP0xeFqFr1vpRB1Y7Dc8Yti1aZbgaU+2k4lU+SsXqx4
RI18fuBgfYvCXp7MKRkLi8Q=
-----END CERTIFICATE-----
