Certificate:
    Data:
        Version: 3 (0x2)
        Serial Number: 18 (0x12)
    Signature Algorithm: sha256WithRSAEncryption
        Issuer: C=CN, ST=Beijing, L=Beijing, O=Tencent Technology (Shenzhen) Company Limited, OU=R&D, CN=*.qq.com
        Validity
            Not Before: Dec  1 03:48:59 2016 GMT
            Not After : Nov 29 03:48:59 2026 GMT
        Subject: C=CN, ST=Shenzhen, O=Tencent Technology (Shenzhen) Company Limited, OU=R&D, CN=*.qq.com
        Subject Public Key Info:
            Public Key Algorithm: rsaEncryption
                Public-Key: (2048 bit)
                Modulus:
                    00:d4:9e:69:26:da:a2:93:ee:b5:9c:8e:d7:82:aa:
                    7e:3a:34:e1:56:b1:70:d1:5f:4e:8a:8c:6e:17:2d:
                    68:e6:fe:91:de:9d:fc:33:4d:fb:86:b0:b6:8e:0a:
                    7a:0d:d2:21:ba:ea:cf:9f:78:88:35:72:43:60:5e:
                    fc:b7:66:20:6d:77:51:4e:83:19:b5:c0:a5:ec:b4:
                    fd:fc:6b:f2:7d:70:5c:cd:66:57:50:b5:35:9d:29:
                    3b:69:df:8c:b0:f9:37:5f:eb:8d:2f:69:3b:10:31:
                    36:07:97:28:8b:b5:a4:a1:c3:39:67:9d:eb:07:cd:
                    46:b1:ff:40:44:42:21:af:17:49:7b:41:b1:08:e5:
                    c4:8b:be:f3:b6:5c:a4:8c:49:ea:97:c2:d4:21:25:
                    24:62:57:40:47:b7:0a:c6:d5:d0:df:0d:d1:e6:ec:
                    c2:5d:e5:da:3e:89:e4:05:1a:97:0a:a7:21:71:2b:
                    7d:1b:f5:9c:53:25:f5:3d:be:2e:b0:95:38:c1:23:
                    f0:3a:4e:35:89:a0:2a:16:65:e2:7d:96:a4:36:5a:
                    ea:71:5f:96:b8:78:07:8e:1b:a2:65:0d:ac:a9:39:
                    c1:72:d9:06:36:94:0b:d8:c2:a1:90:35:28:55:e0:
                    7e:ce:7d:6a:be:82:e5:7e:70:bf:43:21:a0:0a:8f:
                    1b:bb
                Exponent: 65537 (0x10001)
        X509v3 extensions:
            X509v3 Basic Constraints: 
                CA:FALSE
            X509v3 Key Usage: 
                Digital Signature, Non Repudiation, Key Encipherment
            X509v3 Subject Alternative Name: 
                DNS:*.youku.com, DNS:*.letv.com, DNS:*.sohu.com, DNS:*.iqiyi.com
    Signature Algorithm: sha256WithRSAEncryption
         4d:8f:5b:25:1e:dd:87:58:ae:a0:b9:11:15:04:78:59:a6:bf:
         b8:17:b2:a4:c1:77:b8:29:6b:ed:d4:3a:66:ab:bf:88:31:ca:
         d6:1f:71:4b:8e:db:05:2a:d9:47:da:5b:b0:df:9a:fb:a2:f1:
         ed:2b:42:b5:19:ba:ff:a2:c6:60:84:b4:eb:e3:97:64:cf:0d:
         ed:4f:72:c8:56:57:2e:8a:b9:4b:15:e6:2e:bf:f7:6d:d3:b2:
         8c:fa:77:dc:da:23:e4:51:22:92:4c:91:87:25:7d:e1:81:c0:
         9d:9a:85:d8:46:d1:79:9f:a5:43:ee:0f:5b:1b:88:1d:16:82:
         e8:dd:77:bc:1b:70:5d:88:bf:91:79:78:03:f1:01:ec:68:95:
         aa:99:51:b4:3b:09:63:d9:de:9b:08:a8:61:35:c4:31:a6:f0:
         45:bb:63:28:e1:f8:58:0b:2d:d2:d9:0a:50:c4:9e:12:f8:d0:
         8b:03:5d:a2:3b:be:60:01:84:c5:16:da:29:36:83:f9:13:bb:
         ed:29:21:1a:32:84:2e:2b:1c:fb:21:d5:71:8f:99:4d:12:a7:
         f4:43:7e:b0:54:45:28:31:25:9f:ef:48:c9:56:70:b5:53:21:
         60:a8:6a:b5:a9:1c:29:ff:bd:e5:6e:24:b2:34:c3:f4:3e:0e:
         02:69:b8:a7
-----BEGIN CERTIFICATE-----
MIID1jCCAr6gAwIBAgIBEjANBgkqhkiG9w0BAQsFADCBijELMAkGA1UEBhMCQ04x
EDAOBgNVBAgMB0JlaWppbmcxEDAOBgNVBAcMB0JlaWppbmcxNjA0BgNVBAoMLVRl
bmNlbnQgVGVjaG5vbG9neSAoU2hlbnpoZW4pIENvbXBhbnkgTGltaXRlZDEMMAoG
A1UECwwDUiZEMREwDwYDVQQDDAgqLnFxLmNvbTAeFw0xNjEyMDEwMzQ4NTlaFw0y
NjExMjkwMzQ4NTlaMHkxCzAJBgNVBAYTAkNOMREwDwYDVQQIDAhTaGVuemhlbjE2
MDQGA1UECgwtVGVuY2VudCBUZWNobm9sb2d5IChTaGVuemhlbikgQ29tcGFueSBM
aW1pdGVkMQwwCgYDVQQLDANSJkQxETAPBgNVBAMMCCoucXEuY29tMIIBIjANBgkq
hkiG9w0BAQEFAAOCAQ8AMIIBCgKCAQEA1J5pJtqik+61nI7Xgqp+OjThVrFw0V9O
ioxuFy1o5v6R3p38M037hrC2jgp6DdIhuurPn3iINXJDYF78t2YgbXdRToMZtcCl
7LT9/GvyfXBczWZXULU1nSk7ad+MsPk3X+uNL2k7EDE2B5coi7WkocM5Z53rB81G
sf9AREIhrxdJe0GxCOXEi77ztlykjEnql8LUISUkYldAR7cKxtXQ3w3R5uzCXeXa
PonkBRqXCqchcSt9G/WcUyX1Pb4usJU4wSPwOk41iaAqFmXifZakNlrqcV+WuHgH
jhuiZQ2sqTnBctkGNpQL2MKhkDUoVeB+zn1qvoLlfnC/QyGgCo8buwIDAQABo1cw
VTAJBgNVHRMEAjAAMAsGA1UdDwQEAwIF4DA7BgNVHREENDAyggsqLnlvdWt1LmNv
bYIKKi5sZXR2LmNvbYIKKi5zb2h1LmNvbYILKi5pcWl5aS5jb20wDQYJKoZIhvcN
AQELBQADggEBAE2PWyUe3YdYrqC5ERUEeFmmv7gXsqTBd7gpa+3UOmarv4gxytYf
cUuO2wUq2UfaW7Dfmvui8e0rQrUZuv+ixmCEtOvjl2TPDe1PcshWVy6KuUsV5i6/
923Tsoz6d9zaI+RRIpJMkYclfeGBwJ2ahdhG0XmfpUPuD1sbiB0Wgujdd7wbcF2I
v5F5eAPxAexolaqZUbQ7CWPZ3psIqGE1xDGm8EW7Yyjh+FgLLdLZClDEnhL40IsD
XaI7vmABhMUW2ik2g/kTu+0pIRoyhC4rHPsh1XGPmU0Sp/RDfrBURSgxJZ/vSMlW
cLVTIWCoarWpHCn/veVuJLI0w/Q+DgJpuKc=
-----END CERTIFICATE-----
