Certificate:
    Data:
        Version: 3 (0x2)
        Serial Number: 19 (0x13)
    Signature Algorithm: sha256WithRSAEncryption
        Issuer: C=US, ST=US, L=US, O=VeriSign Class 3 Public Primary Certification Authority - G5, OU=VeriSign Trust Network, CN=VeriSign, Inc.
        Validity
            Not Before: Dec  1 06:45:26 2016 GMT
            Not After : Nov 29 06:45:26 2026 GMT
        Subject: C=CN, ST=Shenzhen, O=Tencent Technology (Shenzhen) Company Limited, OU=R&D, CN=v.qq.com
        Subject Public Key Info:
            Public Key Algorithm: rsaEncryption
                Public-Key: (2048 bit)
                Modulus:
                    00:99:d1:75:4a:25:03:84:04:80:b3:46:d9:e8:3a:
                    3a:da:e8:bd:4f:f7:19:b6:db:5e:e3:c5:4a:8f:a6:
                    ba:17:3a:98:f6:6e:b1:08:3b:19:69:5d:2a:ce:11:
                    1c:f6:22:97:1b:53:9a:b3:1c:3d:58:1b:f0:fd:ae:
                    e0:ee:3c:ac:e9:95:57:f0:8b:41:b0:9c:6b:99:ed:
                    94:b5:99:79:90:a8:df:45:e9:c5:03:e9:45:2c:c8:
                    07:d5:78:1c:ec:4c:ce:cd:3b:87:66:c2:26:f5:f4:
                    3d:5a:19:c1:d7:19:16:61:ab:41:c2:d7:78:40:a9:
                    cf:41:5b:b2:8c:47:c4:1a:93:68:be:d1:a9:83:5c:
                    dc:4a:51:6f:75:eb:74:87:ca:92:58:9c:68:91:8b:
                    0b:bb:9a:ed:72:dd:aa:47:77:b5:42:9d:8c:72:51:
                    b7:51:b6:61:45:7e:2b:a1:9c:4c:80:c6:c3:75:36:
                    1b:1f:b0:97:2d:f7:e8:98:ce:49:de:eb:f0:44:4b:
                    7c:98:50:98:fa:8d:9a:c9:4f:79:72:70:84:7e:e0:
                    92:00:fa:58:cf:0b:bb:7f:87:cf:c2:9b:98:99:9f:
                    e7:ed:43:fd:6b:00:2a:66:5b:e9:2e:a8:87:ec:ee:
                    a6:a1:c8:12:e8:29:52:ee:91:78:40:a6:39:79:99:
                    04:71
                Exponent: 65537 (0x10001)
        X509v3 extensions:
            X509v3 Basic Constraints: 
                CA:FALSE
            X509v3 Key Usage: 
                Digital Signature, Non Repudiation, Key Encipherment
            X509v3 Subject Alternative Name: 
                DNS:live.qq.com, DNS:vpic.video.qq.com, DNS:m.v.qq.com, DNS:file.qq.com, DNS:puui.qpic.cn, DNS:vpic.gtimg.cn, DNS:sec.video.qq.com, DNS:pusp.qpic.cn, DNS:vm.gtimg.cn, DNS:cache.tv.qq.com, DNS:v.qq.com
    Signature Algorithm: sha256WithRSAEncryption
         36:d3:fc:bf:3b:f1:b7:80:40:25:d7:d4:da:bf:52:b2:f6:ef:
         03:1e:78:0d:3c:6f:c4:b6:28:72:98:b0:20:74:5e:30:9d:e6:
         1f:99:72:4b:b0:5e:21:36:15:e5:6a:eb:e7:3b:38:91:4e:d7:
         db:c4:b9:f7:4a:07:70:98:90:ba:72:82:03:fb:2a:5b:b4:7d:
         c3:68:5f:a8:02:41:33:3b:b6:e5:64:5d:c5:68:d6:50:bc:b8:
         9e:c8:bf:d5:d8:f9:c3:1f:c8:75:08:61:f2:0d:a4:2f:4f:2b:
         72:81:c4:50:8d:16:6d:17:be:b6:92:be:bd:67:80:1f:b4:87:
         fe:ec:f0:0d:9c:13:1e:2a:c7:25:73:5e:ca:74:fc:7b:bf:b4:
         0c:60:55:34:37:1d:70:f8:47:f8:7a:48:82:5b:4b:fa:68:89:
         44:1c:3e:e1:b6:e6:9a:66:ab:22:2f:42:db:46:ba:a1:c4:7f:
         76:e2:5f:26:23:1a:37:0f:ef:f4:a5:66:9d:66:d0:7f:a2:34:
         10:67:8b:5e:bc:fb:f4:a0:8b:48:82:bb:ac:b5:5f:ff:dd:7c:
         b7:25:0e:ab:52:c1:9c:ed:f8:47:89:ad:57:dd:0f:e0:7f:22:
         e0:26:05:94:76:7a:7d:d7:a0:5e:39:85:3e:03:00:fd:58:f7:
         92:7b:93:7e
-----BEGIN CERTIFICATE-----
MIIEZTCCA02gAwIBAgIBEzANBgkqhkiG9w0BAQsFADCBqDELMAkGA1UEBhMCVVMx
CzAJBgNVBAgMAlVTMQswCQYDVQQHDAJVUzFFMEMGA1UECgw8VmVyaVNpZ24gQ2xh
c3MgMyBQdWJsaWMgUHJpbWFyeSBDZXJ0aWZpY2F0aW9uIEF1dGhvcml0eSAtIEc1
MR8wHQYDVQQLDBZWZXJpU2lnbiBUcnVzdCBOZXR3b3JrMRcwFQYDVQQDDA5WZXJp
U2lnbiwgSW5jLjAeFw0xNjEyMDEwNjQ1MjZaFw0yNjExMjkwNjQ1MjZaMHkxCzAJ
BgNVBAYTAkNOMREwDwYDVQQIDAhTaGVuemhlbjE2MDQGA1UECgwtVGVuY2VudCBU
ZWNobm9sb2d5IChTaGVuemhlbikgQ29tcGFueSBMaW1pdGVkMQwwCgYDVQQLDANS
JkQxETAPBgNVBAMMCHYucXEuY29tMIIBIjANBgkqhkiG9w0BAQEFAAOCAQ8AMIIB
CgKCAQEAmdF1SiUDhASAs0bZ6Do62ui9T/cZttte48VKj6a6FzqY9m6xCDsZaV0q
zhEc9iKXG1Oasxw9WBvw/a7g7jys6ZVX8ItBsJxrme2UtZl5kKjfRenFA+lFLMgH
1Xgc7EzOzTuHZsIm9fQ9WhnB1xkWYatBwtd4QKnPQVuyjEfEGpNovtGpg1zcSlFv
det0h8qSWJxokYsLu5rtct2qR3e1Qp2MclG3UbZhRX4roZxMgMbDdTYbH7CXLffo
mM5J3uvwREt8mFCY+o2ayU95cnCEfuCSAPpYzwu7f4fPwpuYmZ/n7UP9awAqZlvp
LqiH7O6mocgS6ClS7pF4QKY5eZkEcQIDAQABo4HHMIHEMAkGA1UdEwQCMAAwCwYD
VR0PBAQDAgXgMIGpBgNVHREEgaEwgZ6CC2xpdmUucXEuY29tghF2cGljLnZpZGVv
LnFxLmNvbYIKbS52LnFxLmNvbYILZmlsZS5xcS5jb22CDHB1dWkucXBpYy5jboIN
dnBpYy5ndGltZy5jboIQc2VjLnZpZGVvLnFxLmNvbYIMcHVzcC5xcGljLmNuggt2
bS5ndGltZy5jboIPY2FjaGUudHYucXEuY29tggh2LnFxLmNvbTANBgkqhkiG9w0B
AQsFAAOCAQEANtP8vzvxt4BAJdfU2r9SsvbvAx54DTxvxLYocpiwIHReMJ3mH5ly
S7BeITYV5Wrr5zs4kU7X28S590oHcJiQunKCA/sqW7R9w2hfqAJBMzu25WRdxWjW
ULy4nsi/1dj5wx/IdQhh8g2kL08rcoHEUI0WbRe+tpK+vWeAH7SH/uzwDZwTHirH
JXNeynT8e7+0DGBVNDcdcPhH+HpIgltL+miJRBw+4bbmmmarIi9C20a6ocR/duJf
JiMaNw/v9KVmnWbQf6I0EGeLXrz79KCLSIK7rLVf/918tyUOq1LBnO34R4mtV90P
4H8i4CYFlHZ6fdegXjmFPgMA/Vj3knuTfg==
-----END CERTIFICATE-----
