Certificate:
    Data:
        Version: 3 (0x2)
        Serial Number: 20 (0x14)
    Signature Algorithm: sha256WithRSAEncryption
        Issuer: C=US, ST=US, L=US, O=VeriSign Class 3 Public Primary Certification Authority - G5, OU=VeriSign Trust Network, CN=VeriSign, Inc.
        Validity
            Not Before: Dec  1 07:35:00 2016 GMT
            Not After : Nov 29 07:35:00 2026 GMT
        Subject: C=CN, ST=guangdong, O=Tencent Technology (Shenzhen) Company Limited, OU=R&D, CN=betara.gtimg.com
        Subject Public Key Info:
            Public Key Algorithm: rsaEncryption
                Public-Key: (2048 bit)
                Modulus:
                    00:b0:bc:f5:d3:fa:a7:43:19:99:81:05:0f:ff:6f:
                    8d:cf:8b:50:c9:bc:be:7e:f5:15:41:29:c9:3e:4f:
                    15:1f:c3:aa:43:d7:2c:9d:04:a4:55:3c:ce:44:69:
                    3d:ba:50:f8:5a:27:15:e1:11:e2:61:0b:8e:6f:01:
                    0d:35:a7:6b:59:45:37:cc:20:f4:0e:2d:c2:a4:9d:
                    ab:70:fc:79:ef:ce:a2:1c:34:4c:c2:51:2b:6c:44:
                    bc:70:1a:0f:e6:02:97:2a:d3:73:96:0e:da:09:96:
                    1b:af:d4:05:af:a0:f0:70:d0:d5:77:13:4a:2e:99:
                    56:50:c8:86:ee:bb:df:4d:71:79:ff:ba:35:37:7a:
                    19:33:06:2d:22:52:f3:7f:5d:7e:4b:6f:ef:43:37:
                    2e:21:ea:35:b9:e3:09:f8:95:8b:f8:5b:c8:a0:f8:
                    e9:25:ea:37:57:1a:8d:f1:16:54:a7:f5:c9:6a:e7:
                    b5:7c:0e:cf:cd:93:7f:23:f5:65:b4:19:e7:f4:fd:
                    ab:b9:33:7b:d7:fc:bf:e0:e8:a6:b4:c4:ab:58:e3:
                    c3:ad:4f:90:8c:6e:f5:0a:bf:a9:d5:de:83:c6:90:
                    0b:ea:16:80:f7:11:a8:f9:65:d0:d5:19:ce:34:2d:
                    fb:cf:9d:39:e1:9b:b3:d3:52:ca:2b:b6:2c:01:6f:
                    d1:11
                Exponent: 65537 (0x10001)
        X509v3 extensions:
            X509v3 Basic Constraints: 
                CA:FALSE
            X509v3 Key Usage: 
                Digital Signature, Non Repudiation, Key Encipherment
            X509v3 Subject Alternative Name: 
                DNS:live.qq.com, DNS:vpic.video.qq.com, DNS:m.v.qq.com, DNS:file.qq.com, DNS:puui.qpic.cn, DNS:vpic.gtimg.cn, DNS:sec.video.qq.com, DNS:pusp.qpic.cn, DNS:vm.gtimg.cn, DNS:cache.tv.qq.com, DNS:v.qq.com, DNS:p.tencentmind.com, DNS:p3.l.qq.com, DNS:p2.l.qq.com, DNS:livew.l.qq.com, DNS:livec.l.qq.com, DNS:act.t.l.qq.com, DNS:jump.t.l.qq.com, DNS:m.l.qq.com, DNS:ca.gtimg.com, DNS:bla.gtimg.com, DNS:cb.gtimg.com, DNS:swb.gtimg.com, DNS:la.gtimg.com, DNS:bra.gtimg.com, DNS:swa.gtimg.com, DNS:rb.gtimg.com, DNS:svb.gtimg.com, DNS:wb.gtimg.com, DNS:bca.gtimg.com, DNS:ra.gtimg.com, DNS:wa.gtimg.com, DNS:lb.gtimg.com, DNS:bwa.gtimg.com, DNS:sva.gtimg.com, DNS:betara.gtimg.com
    Signature Algorithm: sha256WithRSAEncryption
         9a:9e:c0:35:34:5d:c7:00:46:d9:34:23:0e:54:41:e8:76:0c:
         5e:22:4f:c0:b6:63:5f:db:85:81:97:63:2b:d6:69:c5:b2:8f:
         7a:62:c8:aa:06:37:39:47:41:ae:f1:d8:70:50:5e:8f:a3:0d:
         e0:d7:33:54:96:52:32:0d:af:94:2b:e1:e6:6e:5d:ea:a4:f5:
         1f:cc:6a:05:1e:4f:f0:1f:b2:7a:83:ce:c0:d7:9c:51:56:cd:
         91:6c:2b:a7:70:78:d6:1f:96:4c:eb:88:34:fa:1e:8d:02:9e:
         01:df:e4:ff:5a:c2:b6:06:36:a5:78:36:86:05:14:d5:ae:71:
         7a:8e:54:67:f9:39:19:e0:d6:aa:2c:51:03:9d:d1:5b:b2:d6:
         2a:f9:fb:a3:63:63:c2:ea:22:5e:77:33:fa:e1:c3:e9:0e:d0:
         c1:ec:57:c7:19:ec:c9:4e:bc:04:38:ee:b7:e6:cf:86:2e:f3:
         67:93:c5:c7:d5:ea:3b:d3:c2:9c:e6:0e:e8:6a:27:9f:00:63:
         34:d4:85:ef:45:e2:7b:24:e2:cb:4f:84:77:5c:3a:81:00:97:
         99:b1:c6:d0:f4:cd:e5:a2:11:35:f5:53:cd:f0:3c:61:22:24:
         8a:58:19:a7:0f:89:7c:17:ad:cf:72:2e:9f:ba:19:58:43:7f:
         dd:9a:f3:ae
-----BEGIN CERTIFICATE-----
MIIF6DCCBNCgAwIBAgIBFDANBgkqhkiG9w0BAQsFADCBqDELMAkGA1UEBhMCVVMx
CzAJBgNVBAgMAlVTMQswCQYDVQQHDAJVUzFFMEMGA1UECgw8VmVyaVNpZ24gQ2xh
c3MgMyBQdWJsaWMgUHJpbWFyeSBDZXJ0aWZpY2F0aW9uIEF1dGhvcml0eSAtIEc1
MR8wHQYDVQQLDBZWZXJpU2lnbiBUcnVzdCBOZXR3b3JrMRcwFQYDVQQDDA5WZXJp
U2lnbiwgSW5jLjAeFw0xNjEyMDEwNzM1MDBaFw0yNjExMjkwNzM1MDBaMIGCMQsw
CQYDVQQGEwJDTjESMBAGA1UECAwJZ3Vhbmdkb25nMTYwNAYDVQQKDC1UZW5jZW50
IFRlY2hub2xvZ3kgKFNoZW56aGVuKSBDb21wYW55IExpbWl0ZWQxDDAKBgNVBAsM
A1ImRDEZMBcGA1UEAwwQYmV0YXJhLmd0aW1nLmNvbTCCASIwDQYJKoZIhvcNAQEB
BQADggEPADCCAQoCggEBALC89dP6p0MZmYEFD/9vjc+LUMm8vn71FUEpyT5PFR/D
qkPXLJ0EpFU8zkRpPbpQ+FonFeER4mELjm8BDTWna1lFN8wg9A4twqSdq3D8ee/O
ohw0TMJRK2xEvHAaD+YClyrTc5YO2gmWG6/UBa+g8HDQ1XcTSi6ZVlDIhu67301x
ef+6NTd6GTMGLSJS839dfktv70M3LiHqNbnjCfiVi/hbyKD46SXqN1cajfEWVKf1
yWrntXwOz82TfyP1ZbQZ5/T9q7kze9f8v+DoprTEq1jjw61PkIxu9Qq/qdXeg8aQ
C+oWgPcRqPll0NUZzjQt+8+dOeGbs9NSyiu2LAFv0RECAwEAAaOCAj8wggI7MAkG
A1UdEwQCMAAwCwYDVR0PBAQDAgXgMIICHwYDVR0RBIICFjCCAhKCC2xpdmUucXEu
Y29tghF2cGljLnZpZGVvLnFxLmNvbYIKbS52LnFxLmNvbYILZmlsZS5xcS5jb22C
DHB1dWkucXBpYy5jboINdnBpYy5ndGltZy5jboIQc2VjLnZpZGVvLnFxLmNvbYIM
cHVzcC5xcGljLmNuggt2bS5ndGltZy5jboIPY2FjaGUudHYucXEuY29tggh2LnFx
LmNvbYIRcC50ZW5jZW50bWluZC5jb22CC3AzLmwucXEuY29tggtwMi5sLnFxLmNv
bYIObGl2ZXcubC5xcS5jb22CDmxpdmVjLmwucXEuY29tgg5hY3QudC5sLnFxLmNv
bYIPanVtcC50LmwucXEuY29tggptLmwucXEuY29tggxjYS5ndGltZy5jb22CDWJs
YS5ndGltZy5jb22CDGNiLmd0aW1nLmNvbYINc3diLmd0aW1nLmNvbYIMbGEuZ3Rp
bWcuY29tgg1icmEuZ3RpbWcuY29tgg1zd2EuZ3RpbWcuY29tggxyYi5ndGltZy5j
b22CDXN2Yi5ndGltZy5jb22CDHdiLmd0aW1nLmNvbYINYmNhLmd0aW1nLmNvbYIM
cmEuZ3RpbWcuY29tggx3YS5ndGltZy5jb22CDGxiLmd0aW1nLmNvbYINYndhLmd0
aW1nLmNvbYINc3ZhLmd0aW1nLmNvbYIQYmV0YXJhLmd0aW1nLmNvbTANBgkqhkiG
9w0BAQsFAAOCAQEAmp7ANTRdxwBG2TQjDlRB6HYMXiJPwLZjX9uFgZdjK9ZpxbKP
emLIqgY3OUdBrvHYcFBej6MN4NczVJZSMg2vlCvh5m5d6qT1H8xqBR5P8B+yeoPO
wNecUVbNkWwrp3B41h+WTOuINPoejQKeAd/k/1rCtgY2pXg2hgUU1a5xeo5UZ/k5
GeDWqixRA53RW7LWKvn7o2NjwuoiXncz+uHD6Q7QwexXxxnsyU68BDjut+bPhi7z
Z5PFx9XqO9PCnOYO6GonnwBjNNSF70XieyTiy0+Ed1w6gQCXmbHG0PTN5aIRNfVT
zfA8YSIkilgZpw+JfBetz3Iun7oZWEN/3Zrzrg==
-----END CERTIFICATE-----
