Certificate:
    Data:
        Version: 3 (0x2)
        Serial Number: 21 (0x15)
    Signature Algorithm: sha256WithRSAEncryption
        Issuer: C=CN, ST=HuBei, L=Wuhan, O=Douyu Inc, OU=Douyu Inc, CN=VeriSign, Inc.
        Validity
            Not Before: Mar 14 05:50:27 2017 GMT
            Not After : Mar 12 05:50:27 2027 GMT
        Subject: C=CN, ST=Beijing, O=Wuhan Shayu Network Broadcasting Tech Co., Ltd. Beijing Branch, OU=IT, CN=*.qiecdn.com
        Subject Public Key Info:
            Public Key Algorithm: rsaEncryption
                Public-Key: (2048 bit)
                Modulus:
                    00:b5:19:1b:b6:ff:6e:dc:ed:90:10:a1:a3:0d:dd:
                    1a:a9:e4:79:4c:56:89:c8:51:99:be:6f:28:43:5d:
                    22:17:ea:07:06:5e:80:65:ad:4a:38:8a:d4:25:52:
                    75:60:77:53:a2:c1:47:fe:2e:bd:6f:d7:fd:db:76:
                    48:c7:93:98:a2:fc:24:56:b0:f4:f3:1b:31:a8:0c:
                    d3:c0:76:a5:e8:39:b0:b4:35:14:5e:6e:c2:6c:47:
                    f1:66:1e:b8:fc:ad:bb:0f:35:65:b4:74:9e:25:c6:
                    c4:46:fa:46:db:e8:27:71:ef:08:67:2f:ec:b6:bc:
                    71:ed:4f:5f:7f:01:8d:05:61:26:59:85:38:04:7e:
                    0d:b0:75:5e:17:ef:1f:83:3a:c0:81:cf:fe:e6:15:
                    f8:65:bf:b9:df:b1:71:a6:6a:9e:c2:a8:18:f2:e7:
                    fc:ec:62:dc:ac:bd:44:c7:61:40:9f:8d:70:cf:b0:
                    b3:de:61:8d:eb:c4:54:83:ce:0f:82:36:03:79:9e:
                    83:4f:cb:00:34:56:7e:a5:2e:5e:c4:a0:ea:34:e6:
                    02:51:b0:a7:86:14:ef:d4:09:2b:ba:a7:a6:45:47:
                    be:fb:59:0d:23:7b:65:ad:1e:7b:99:7a:38:48:af:
                    d9:78:a5:d9:ca:d4:73:70:43:e9:46:f0:ef:70:06:
                    73:eb
                Exponent: 65537 (0x10001)
        X509v3 extensions:
            X509v3 Basic Constraints: 
                CA:FALSE
            X509v3 Key Usage: 
                Digital Signature, Non Repudiation, Key Encipherment
    Signature Algorithm: sha256WithRSAEncryption
         38:ae:c0:27:1e:87:5b:dd:44:ba:8b:67:93:1b:11:e9:6c:ea:
         3d:b2:36:6c:40:27:21:d9:45:d5:4f:ce:d0:79:a7:fa:eb:05:
         9b:fd:27:d0:f6:e9:1c:d2:c0:71:45:b5:17:88:06:a0:90:13:
         a7:33:45:b4:a3:67:16:c8:94:e8:97:03:58:95:5e:8c:8b:8a:
         84:8c:41:2e:1d:9d:6c:a9:c2:90:d6:7b:51:32:62:c4:de:51:
         10:52:ab:3c:b1:c2:03:15:fb:f4:79:71:76:82:24:48:b3:fc:
         41:24:57:e7:38:b1:fc:eb:07:de:7c:04:0e:ab:56:bc:05:bd:
         da:80:bd:ff:38:32:72:20:5d:2a:f9:e4:c1:11:c9:aa:b8:a4:
         c7:8f:d2:26:a9:81:67:51:84:9d:a4:9e:13:cc:93:c9:e1:36:
         4f:26:d5:32:0c:e6:ec:ed:cc:c9:6c:d9:91:50:0b:03:d7:c8:
         98:24:af:fa:f7:3e:94:72:36:60:f4:fc:14:3b:c1:d9:59:68:
         78:a0:00:c5:be:44:80:2d:51:fe:5d:cb:37:1b:b0:69:28:60:
         e0:d1:be:da:85:3c:71:8f:74:be:eb:93:15:f8:f6:02:b6:7e:
         48:25:8d:f6:3a:5b:70:cd:ae:5d:ac:c5:f1:c9:1d:4e:c9:4b:
         dd:42:1f:c4
-----BEGIN CERTIFICATE-----
MIIDkDCCAnigAwIBAgIBFTANBgkqhkiG9w0BAQsFADBuMQswCQYDVQQGEwJDTjEO
MAwGA1UECAwFSHVCZWkxDjAMBgNVBAcMBVd1aGFuMRIwEAYDVQQKDAlEb3V5dSBJ
bmMxEjAQBgNVBAsMCURvdXl1IEluYzEXMBUGA1UEAwwOVmVyaVNpZ24sIEluYy4w
HhcNMTcwMzE0MDU1MDI3WhcNMjcwMzEyMDU1MDI3WjCBjDELMAkGA1UEBhMCQ04x
EDAOBgNVBAgMB0JlaWppbmcxRzBFBgNVBAoMPld1aGFuIFNoYXl1IE5ldHdvcmsg
QnJvYWRjYXN0aW5nIFRlY2ggQ28uLCBMdGQuIEJlaWppbmcgQnJhbmNoMQswCQYD
VQQLDAJJVDEVMBMGA1UEAwwMKi5xaWVjZG4uY29tMIIBIjANBgkqhkiG9w0BAQEF
AAOCAQ8AMIIBCgKCAQEAtRkbtv9u3O2QEKGjDd0aqeR5TFaJyFGZvm8oQ10iF+oH
Bl6AZa1KOIrUJVJ1YHdTosFH/i69b9f923ZIx5OYovwkVrD08xsxqAzTwHal6Dmw
tDUUXm7CbEfxZh64/K27DzVltHSeJcbERvpG2+gnce8IZy/strxx7U9ffwGNBWEm
WYU4BH4NsHVeF+8fgzrAgc/+5hX4Zb+537FxpmqewqgY8uf87GLcrL1Ex2FAn41w
z7Cz3mGN68RUg84PgjYDeZ6DT8sANFZ+pS5exKDqNOYCUbCnhhTv1AkruqemRUe+
+1kNI3tlrR57mXo4SK/ZeKXZytRzcEPpRvDvcAZz6wIDAQABoxowGDAJBgNVHRME
AjAAMAsGA1UdDwQEAwIF4DANBgkqhkiG9w0BAQsFAAOCAQEAOK7AJx6HW91Euotn
kxsR6WzqPbI2bEAnIdlF1U/O0Hmn+usFm/0n0PbpHNLAcUW1F4gGoJATpzNFtKNn
FsiU6JcDWJVejIuKhIxBLh2dbKnCkNZ7UTJixN5REFKrPLHCAxX79HlxdoIkSLP8
QSRX5zix/OsH3nwEDqtWvAW92oC9/zgyciBdKvnkwRHJqrikx4/SJqmBZ1GEnaSe
E8yTyeE2TybVMgzm7O3MyWzZkVALA9fImCSv+vc+lHI2YPT8FDvB2VloeKAAxb5E
gC1R/l3LNxuwaShg4NG+2oU8cY90vuuTFfj2ArZ+SCWN9jpbcM2uXazF8ckdTslL
3UIfxA==
-----END CERTIFICATE-----
