Certificate:
    Data:
        Version: 3 (0x2)
        Serial Number: 22 (0x16)
    Signature Algorithm: sha256WithRSAEncryption
        Issuer: C=CN, ST=HuBei, L=Wuhan, O=Douyu Inc, OU=Douyu Inc, CN=VeriSign, Inc.
        Validity
            Not Before: Mar 16 08:06:44 2017 GMT
            Not After : Mar 14 08:06:44 2027 GMT
        Subject: C=CN, ST=shenzhen, O=Shenzhen Tencent Computer Systems Company Limited, OU=R&D, CN=*.qq.com
        Subject Public Key Info:
            Public Key Algorithm: rsaEncryption
                Public-Key: (2048 bit)
                Modulus:
                    00:c6:46:29:7c:8e:62:ba:49:f7:6d:38:c3:a5:dd:
                    c4:62:90:c8:fb:9a:ef:6a:fe:54:64:98:a6:b5:a6:
                    59:76:63:c6:c4:90:8b:7b:47:e8:38:42:f4:64:1c:
                    9f:44:88:36:05:a7:92:94:d9:22:2c:5d:32:87:8e:
                    17:d8:c8:c4:d1:d5:e7:a8:97:59:dd:f6:5c:f2:77:
                    f9:39:8d:90:0f:e1:a3:56:c3:72:d5:9b:bf:21:72:
                    7c:b0:93:7b:26:d0:18:39:2e:9f:f9:2b:50:93:0b:
                    fb:f4:13:32:c6:69:73:9e:b6:19:6e:bb:92:63:3b:
                    04:e8:d1:9b:e4:88:96:7d:75:63:21:c0:c0:fc:0d:
                    dc:ea:29:5a:9b:22:bd:f2:88:b5:23:01:b8:0f:13:
                    3f:f4:98:3f:8b:b9:aa:c9:0c:ed:f1:63:05:6c:1c:
                    4f:a5:1d:35:e8:8a:ab:1e:9c:a0:0b:1a:8e:67:d5:
                    d9:95:bc:41:5a:be:58:ec:1f:29:08:21:bd:a5:5c:
                    2e:c3:5f:c6:4e:88:f2:cb:88:20:d5:c7:21:3c:16:
                    4f:08:f3:fe:16:ec:d2:47:20:22:3a:7e:80:c2:6e:
                    a9:ec:6b:76:3b:7d:94:c1:9e:f7:85:00:76:ad:6d:
                    13:56:00:fd:c4:20:e2:2c:5d:23:c2:f8:70:58:9d:
                    ab:81
                Exponent: 65537 (0x10001)
        X509v3 extensions:
            X509v3 Basic Constraints: 
                CA:FALSE
            X509v3 Key Usage: 
                Digital Signature, Non Repudiation, Key Encipherment
    Signature Algorithm: sha256WithRSAEncryption
         78:f2:32:b3:b9:fd:c6:c2:95:73:a0:1e:de:5c:ea:bf:ac:e8:
         3a:f8:06:71:20:e3:a2:2b:e7:f8:e1:89:b6:f7:7e:a6:bc:60:
         d3:30:42:17:f6:99:f5:92:cf:64:43:72:29:86:c9:94:16:4e:
         ef:9d:39:cb:1e:1d:49:bf:a4:4e:5a:fc:11:55:9e:b1:cb:07:
         13:40:40:06:16:9d:f9:e3:c5:66:8a:be:e2:08:88:7a:15:1a:
         ba:5c:78:dd:55:58:85:8b:fa:60:b2:0a:9f:ca:df:8c:40:54:
         ca:49:6c:88:0f:53:3e:e4:a6:8a:c8:5f:e9:2d:96:35:8c:5b:
         43:c4:50:07:1c:5a:4e:f6:ad:ed:e0:bf:7f:09:01:5d:77:2f:
         a8:b1:e8:a3:df:aa:3f:61:91:67:b9:48:22:81:2f:d6:fd:51:
         a0:f9:bc:4a:56:64:71:48:c5:7f:cf:f3:83:ae:18:12:85:ae:
         af:43:bc:7c:fc:3d:66:17:7c:26:36:f1:24:82:a0:86:8e:49:
         aa:c2:32:57:27:5b:36:9e:e9:9c:a7:eb:54:ac:59:c2:73:7a:
         ec:1d:63:1e:ac:30:87:dc:f7:68:a6:aa:d1:71:db:94:85:13:
         26:ae:21:ad:95:bd:ff:99:32:c4:16:69:99:d7:7c:a0:f5:75:
         ed:45:cb:a7
-----BEGIN CERTIFICATE-----
MIIDgDCCAmigAwIBAgIBFjANBgkqhkiG9w0BAQsFADBuMQswCQYDVQQGEwJDTjEO
MAwGA1UECAwFSHVCZWkxDjAMBgNVBAcMBVd1aGFuMRIwEAYDVQQKDAlEb3V5dSBJ
bmMxEjAQBgNVBAsMCURvdXl1IEluYzEXMBUGA1UEAwwOVmVyaVNpZ24sIEluYy4w
HhcNMTcwMzE2MDgwNjQ0WhcNMjcwMzE0MDgwNjQ0WjB9MQswCQYDVQQGEwJDTjER
MA8GA1UECAwIc2hlbnpoZW4xOjA4BgNVBAoMMVNoZW56aGVuIFRlbmNlbnQgQ29t
cHV0ZXIgU3lzdGVtcyBDb21wYW55IExpbWl0ZWQxDDAKBgNVBAsMA1ImRDERMA8G
A1UEAwwIKi5xcS5jb20wggEiMA0GCSqGSIb3DQEBAQUAA4IBDwAwggEKAoIBAQDG
Ril8jmK6SfdtOMOl3cRikMj7mu9q/lRkmKa1pll2Y8bEkIt7R+g4QvRkHJ9EiDYF
p5KU2SIsXTKHjhfYyMTR1eeol1nd9lzyd/k5jZAP4aNWw3LVm78hcnywk3sm0Bg5
Lp/5K1CTC/v0EzLGaXOethluu5JjOwTo0ZvkiJZ9dWMhwMD8DdzqKVqbIr3yiLUj
AbgPEz/0mD+LuarJDO3xYwVsHE+lHTXoiqsenKALGo5n1dmVvEFavljsHykIIb2l
XC7DX8ZOiPLLiCDVxyE8Fk8I8/4W7NJHICI6foDCbqnsa3Y7fZTBnveFAHatbRNW
AP3EIOIsXSPC+HBYnauBAgMBAAGjGjAYMAkGA1UdEwQCMAAwCwYDVR0PBAQDAgXg
MA0GCSqGSIb3DQEBCwUAA4IBAQB48jKzuf3GwpVzoB7eXOq/rOg6+AZxIOOiK+f4
4Ym2936mvGDTMEIX9pn1ks9kQ3IphsmUFk7vnTnLHh1Jv6ROWvwRVZ6xywcTQEAG
Fp3548Vmir7iCIh6FRq6XHjdVViFi/pgsgqfyt+MQFTKSWyID1M+5KaKyF/pLZY1
jFtDxFAHHFpO9q3t4L9/CQFddy+oseij36o/YZFnuUgigS/W/VGg+bxKVmRxSMV/
z/ODrhgSha6vQ7x8/D1mF3wmNvEkgqCGjkmqwjJXJ1s2numcp+tUrFnCc3rsHWMe
rDCH3PdopqrRcduUhRMmriGtlb3/mTLEFmmZ13yg9XXtRcun
-----END CERTIFICATE-----
