Certificate:
    Data:
        Version: 3 (0x2)
        Serial Number: 23 (0x17)
    Signature Algorithm: sha256WithRSAEncryption
        Issuer: C=CN, ST=Beijing, L=Beijing, O=China Information Center, OU=China Information Center, CN=VeriSign, Inc.
        Validity
            Not Before: Mar 17 10:56:42 2017 GMT
            Not After : Mar 15 10:56:42 2027 GMT
        Subject: C=CN, ST=Beijing, O=douyu, OU=douyu, CN=*.douyu.com
        Subject Public Key Info:
            Public Key Algorithm: rsaEncryption
                Public-Key: (2048 bit)
                Modulus:
                    00:ad:70:1b:4d:a8:1b:b0:eb:3a:9f:db:f1:42:82:
                    b1:fe:79:fc:cd:ac:1e:29:aa:ec:ec:24:db:08:c4:
                    08:91:e9:08:2e:b0:4c:ba:bf:90:8b:37:18:8c:23:
                    13:31:d2:39:05:7f:4b:da:da:e0:c3:c2:ae:74:5b:
                    77:4a:bb:1d:31:da:5f:4b:66:0c:1a:1b:9a:6d:29:
                    f9:c9:6d:24:c6:3e:cd:a6:42:0d:0c:d0:8b:96:b9:
                    c7:4d:13:71:13:82:4d:c8:60:c7:35:c3:1c:7b:91:
                    ec:a7:22:4c:fc:39:be:4d:cc:ab:49:84:c7:ff:2a:
                    f7:3f:1a:64:93:b6:2a:57:1b:e7:04:a4:bf:cf:e6:
                    34:b4:d9:d4:cb:c5:cf:3b:82:43:99:bc:7d:bb:48:
                    05:2c:79:dd:d8:f8:4c:46:b9:eb:61:dd:f6:6c:54:
                    8f:6a:f4:c2:1c:c5:af:21:08:7a:20:6b:d7:cf:29:
                    11:da:5e:cc:6e:f9:c9:8b:ae:c8:dc:fa:a2:3e:77:
                    b2:3f:76:66:8c:d6:5e:a9:2e:73:24:f5:dd:cc:d5:
                    88:84:a5:f4:f4:b4:bd:71:71:51:b1:3c:1a:31:47:
                    b3:e7:03:bc:e2:3c:07:5b:83:82:42:bc:89:c4:ec:
                    17:40:76:d2:82:62:30:c3:1e:e8:98:00:99:a6:20:
                    ae:3d
                Exponent: 65537 (0x10001)
        X509v3 extensions:
            X509v3 Basic Constraints: 
                CA:FALSE
            X509v3 Key Usage: 
                Digital Signature, Non Repudiation, Key Encipherment
    Signature Algorithm: sha256WithRSAEncryption
         16:d6:e7:a8:47:5a:e7:0b:85:d4:3f:ca:79:a5:46:d5:cb:ed:
         12:33:33:17:7f:38:05:af:bc:a1:37:35:c0:47:83:68:60:5d:
         8d:84:c9:36:63:4c:dc:66:50:7e:84:06:42:c6:0d:39:51:80:
         4e:9e:e0:ef:10:e8:19:bc:83:a6:75:3f:4c:2a:8e:10:3e:42:
         f9:75:fb:02:29:e7:d8:c7:f3:67:23:50:4f:3e:86:d9:9a:8c:
         a0:f7:b0:e4:a9:5d:09:44:ca:89:a2:1f:f6:80:0f:5e:0f:64:
         31:4d:c0:0b:72:e8:d9:3a:f8:84:2b:a7:85:3c:60:41:c7:4f:
         a7:13:f0:4c:a9:35:6c:51:f7:28:57:31:fe:f5:67:45:46:57:
         fc:c5:43:99:7b:ea:54:6a:4f:a7:22:0e:9c:b1:60:dc:e2:d3:
         97:fc:7f:c5:6f:d2:12:5e:61:97:53:08:00:1c:e1:cf:aa:4e:
         08:a1:c8:a9:64:ae:dc:93:f1:23:49:ce:ac:21:28:3f:aa:9b:
         9d:ab:af:17:0d:11:bb:1d:f3:e1:c2:f4:50:7a:2b:33:97:94:
         1c:80:82:a3:98:ea:9f:3c:01:a3:4a:27:8b:81:95:4d:76:53:
         a3:68:dd:fd:ec:82:32:b2:04:1b:9f:6a:a8:3b:4b:30:74:6d:
         f5:a7:36:8e
-----BEGIN CERTIFICATE-----
MIIDezCCAmOgAwIBAgIBFzANBgkqhkiG9w0BAQsFADCBkDELMAkGA1UEBhMCQ04x
EDAOBgNVBAgMB0JlaWppbmcxEDAOBgNVBAcMB0JlaWppbmcxITAfBgNVBAoMGENo
aW5hIEluZm9ybWF0aW9uIENlbnRlcjEhMB8GA1UECwwYQ2hpbmEgSW5mb3JtYXRp
b24gQ2VudGVyMRcwFQYDVQQDDA5WZXJpU2lnbiwgSW5jLjAeFw0xNzAzMTcxMDU2
NDJaFw0yNzAzMTUxMDU2NDJaMFUxCzAJBgNVBAYTAkNOMRAwDgYDVQQIDAdCZWlq
aW5nMQ4wDAYDVQQKDAVkb3V5dTEOMAwGA1UECwwFZG91eXUxFDASBgNVBAMMCyou
ZG91eXUuY29tMIIBIjANBgkqhkiG9w0BAQEFAAOCAQ8AMIIBCgKCAQEArXAbTagb
sOs6n9vxQoKx/nn8zaweKars7CTbCMQIkekILrBMur+QizcYjCMTMdI5BX9L2trg
w8KudFt3SrsdMdpfS2YMGhuabSn5yW0kxj7NpkINDNCLlrnHTRNxE4JNyGDHNcMc
e5HspyJM/Dm+TcyrSYTH/yr3Pxpkk7YqVxvnBKS/z+Y0tNnUy8XPO4JDmbx9u0gF
LHnd2PhMRrnrYd32bFSPavTCHMWvIQh6IGvXzykR2l7MbvnJi67I3PqiPneyP3Zm
jNZeqS5zJPXdzNWIhKX09LS9cXFRsTwaMUez5wO84jwHW4OCQryJxOwXQHbSgmIw
wx7omACZpiCuPQIDAQABoxowGDAJBgNVHRMEAjAAMAsGA1UdDwQEAwIF4DANBgkq
hkiG9w0BAQsFAAOCAQEAFtbnqEda5wuF1D/KeaVG1cvtEjMzF384Ba+8oTc1wEeD
aGBdjYTJNmNM3GZQfoQGQsYNOVGATp7g7xDoGbyDpnU/TCqOED5C+XX7Ainn2Mfz
ZyNQTz6G2ZqMoPew5KldCUTKiaIf9oAPXg9kMU3AC3Lo2Tr4hCunhTxgQcdPpxPw
TKk1bFH3KFcx/vVnRUZX/MVDmXvqVGpPpyIOnLFg3OLTl/x/xW/SEl5hl1MIABzh
z6pOCKHIqWSu3JPxI0nOrCEoP6qbnauvFw0Rux3z4cL0UHorM5eUHICCo5jqnzwB
o0oni4GVTXZTo2jd/eyCMrIEG59qqDtLMHRt9ac2jg==
-----END CERTIFICATE-----
