Certificate:
    Data:
        Version: 3 (0x2)
        Serial Number: 24 (0x18)
    Signature Algorithm: sha256WithRSAEncryption
        Issuer: C=US, ST=Beijing, L=Beijing, O=China Information Center, OU=China Information Center, CN=VeriSign, Inc.
        Validity
            Not Before: May  3 01:55:05 2017 GMT
            Not After : May  1 01:55:05 2027 GMT
        Subject: C=CN, ST=Beijing, O=douyu, OU=ops, CN=*.douyu.com
        Subject Public Key Info:
            Public Key Algorithm: rsaEncryption
                Public-Key: (2048 bit)
                Modulus:
                    00:c1:5e:b3:22:f1:f7:63:35:6c:1d:03:80:4d:7b:
                    62:96:c8:b1:b2:a7:71:b6:f9:8a:0b:eb:fb:a6:76:
                    80:e1:7b:41:77:04:ea:04:ee:94:b6:51:0b:b5:d7:
                    3c:b5:36:08:2a:fb:86:9b:d9:ae:bf:e0:bc:d2:11:
                    99:46:ba:4e:d6:d2:6f:2c:04:59:9b:4a:00:9f:a0:
                    2e:00:eb:80:ad:a3:56:e5:a7:4d:ba:7e:8f:81:0a:
                    11:51:0b:c4:56:28:36:e8:2d:52:84:e5:b5:e3:77:
                    54:c7:6d:9f:f0:87:ec:8b:7d:b4:ad:49:ce:9c:00:
                    90:1a:2f:c7:0e:2e:5a:5b:c8:19:1d:d3:fa:06:00:
                    ef:17:c2:49:f9:13:93:5f:24:d9:55:dc:f5:7a:9c:
                    39:b2:7a:d2:d0:4d:cc:b1:49:fa:e4:35:ba:ca:22:
                    94:bb:a2:ed:7e:7f:e9:c5:b0:39:3a:c3:a7:a2:79:
                    3c:e0:d9:1c:bc:fb:39:9a:51:75:b5:18:1c:0e:1e:
                    0e:cd:37:3e:8a:ea:99:f5:75:34:b9:62:dd:8a:39:
                    6e:0b:d5:23:b0:40:2e:bc:db:7d:7c:8b:2e:c6:94:
                    f7:4b:48:53:3b:a3:9e:42:90:07:01:59:c5:74:df:
                    a8:5b:e2:dd:da:17:53:7d:23:18:d8:c9:3c:6c:bf:
                    16:95
                Exponent: 65537 (0x10001)
        X509v3 extensions:
            X509v3 Basic Constraints: 
                CA:FALSE
            X509v3 Key Usage: 
                Digital Signature, Non Repudiation, Key Encipherment
    Signature Algorithm: sha256WithRSAEncryption
         98:ca:9d:08:9f:1c:b7:dd:72:81:ba:b7:bb:90:bd:de:a6:8c:
         1e:eb:c7:58:20:9d:de:a6:42:8b:48:97:83:44:c0:08:d5:a2:
         16:32:82:08:75:46:d1:bb:5e:10:e9:93:37:16:69:d7:21:5b:
         fa:96:1d:44:e0:59:73:2a:3d:66:a7:75:ae:7b:9e:bb:c8:5b:
         32:a8:dc:2e:a0:94:99:80:de:2b:45:31:8e:44:71:ab:7c:43:
         7d:de:b1:54:95:f4:77:0f:6c:9c:09:64:ec:90:7a:55:00:19:
         dc:52:6c:c0:33:79:21:a9:c2:ab:4b:10:56:d4:15:dc:c2:e7:
         47:26:66:e1:e3:5c:02:86:52:2d:f2:b7:82:30:44:32:18:aa:
         db:d2:27:9f:04:70:1a:23:c4:08:39:17:01:e6:70:cf:c0:8d:
         4c:25:22:5a:f8:26:9f:d4:03:61:96:1c:d5:62:87:40:17:81:
         d8:83:ff:e8:3e:97:45:2e:80:d2:0c:6c:af:5a:61:be:5b:1f:
         1f:3a:fc:bc:8a:e3:22:03:6a:3e:b9:ec:db:d3:9c:f3:73:7a:
         d0:a9:27:03:d5:1a:14:e2:28:ba:80:ce:ee:8b:e8:75:f8:10:
         a8:ee:f7:fa:c7:48:99:93:ff:0a:52:ec:9e:70:bf:c4:ce:65:
         47:57:44:8f
-----BEGIN CERTIFICATE-----
MIIDeTCCAmGgAwIBAgIBGDANBgkqhkiG9w0BAQsFADCBkDELMAkGA1UEBhMCVVMx
EDAOBgNVBAgMB0JlaWppbmcxEDAOBgNVBAcMB0JlaWppbmcxITAfBgNVBAoMGENo
aW5hIEluZm9ybWF0aW9uIENlbnRlcjEhMB8GA1UECwwYQ2hpbmEgSW5mb3JtYXRp
b24gQ2VudGVyMRcwFQYDVQQDDA5WZXJpU2lnbiwgSW5jLjAeFw0xNzA1MDMwMTU1
MDVaFw0yNzA1MDEwMTU1MDVaMFMxCzAJBgNVBAYTAkNOMRAwDgYDVQQIDAdCZWlq
aW5nMQ4wDAYDVQQKDAVkb3V5dTEMMAoGA1UECwwDb3BzMRQwEgYDVQQDDAsqLmRv
dXl1LmNvbTCCASIwDQYJKoZIhvcNAQEBBQADggEPADCCAQoCggEBAMFesyLx92M1
bB0DgE17YpbIsbKncbb5igvr+6Z2gOF7QXcE6gTulLZRC7XXPLU2CCr7hpvZrr/g
vNIRmUa6TtbSbywEWZtKAJ+gLgDrgK2jVuWnTbp+j4EKEVELxFYoNugtUoTlteN3
VMdtn/CH7It9tK1JzpwAkBovxw4uWlvIGR3T+gYA7xfCSfkTk18k2VXc9XqcObJ6
0tBNzLFJ+uQ1usoilLui7X5/6cWwOTrDp6J5PODZHLz7OZpRdbUYHA4eDs03Porq
mfV1NLli3Yo5bgvVI7BALrzbfXyLLsaU90tIUzujnkKQBwFZxXTfqFvi3doXU30j
GNjJPGy/FpUCAwEAAaMaMBgwCQYDVR0TBAIwADALBgNVHQ8EBAMCBeAwDQYJKoZI
hvcNAQELBQADggEBAJjKnQifHLfdcoG6t7uQvd6mjB7rx1ggnd6mQotIl4NEwAjV
ohYyggh1RtG7XhDpkzcWadchW/qWHUTgWXMqPWanda57nrvIWzKo3C6glJmA3itF
MY5Ecat8Q33esVSV9HcPbJwJZOyQelUAGdxSbMAzeSGpwqtLEFbUFdzC50cmZuHj
XAKGUi3yt4IwRDIYqtvSJ58EcBojxAg5FwHmcM/AjUwlIlr4Jp/UA2GWHNVih0AX
gdiD/+g+l0UugNIMbK9aYb5bHx86/LyK4yIDaj657NvTnPNzetCpJwPVGhTiKLqA
zu6L6HX4EKju9/rHSJmT/wpS7J5wv8TOZUdXRI8=
-----END CERTIFICATE-----
